<*GNU-Linker-generated-mapfile*> 
generated for DSx86_32 platform 
collect2 version 5.2.0
C:/ProgramData/dSPACE/071346ea-bffa-4465-9551-2e48edf35320/Compiler/QNX650_520/host/win32/x86/usr/bin/i486-pc-nto-qnx6.5.0-ld.exe -plugin c:/programdata/dspace/071346ea-bffa-4465-9551-2e48edf35320/compiler/qnx650_520/host/win32/x86/usr/bin/../lib/gcc/i486-pc-nto-qnx6.5.0/5.2.0/liblto_plugin-0.dll -plugin-opt=c:/programdata/dspace/071346ea-bffa-4465-9551-2e48edf35320/compiler/qnx650_520/host/win32/x86/usr/bin/../lib/gcc/i486-pc-nto-qnx6.5.0/5.2.0/lto-wrapper.exe -plugin-opt=-fresolution=C:\Users\INCA\AppData\Local\Temp\ccPQ0fcY.res -plugin-opt=-pass-through=-lgcc -plugin-opt=-pass-through=-lc -plugin-opt=-pass-through=-lc -plugin-opt=-pass-through=-lgcc --sysroot=/opt/qnx650/target/qnx6/ --eh-frame-hdr --build-id=md5 -Y P,/opt/qnx650/target/qnx6//lib -Qy -m i386nto --dynamic-linker /usr/lib/ldqnx.so.2 C:\ProgramData\dSPACE\071346ea-bffa-4465-9551-2e48edf35320\Compiler\QNX650_520\target\qnx6/x86/lib/crt1.o C:\ProgramData\dSPACE\071346ea-bffa-4465-9551-2e48edf35320\Compiler\QNX650_520\target\qnx6/x86/lib/crti.o c:/programdata/dspace/071346ea-bffa-4465-9551-2e48edf35320/compiler/qnx650_520/host/win32/x86/usr/bin/../lib/gcc/i486-pc-nto-qnx6.5.0/5.2.0/crtbegin.o -Lc:/programdata/dspace/071346ea-bffa-4465-9551-2e48edf35320/compiler/qnx650_520/host/win32/x86/usr/bin/../lib/gcc/i486-pc-nto-qnx6.5.0/5.2.0 -Lc:/programdata/dspace/071346ea-bffa-4465-9551-2e48edf35320/compiler/qnx650_520/host/win32/x86/usr/bin/../lib/gcc -L C:\ProgramData\dSPACE\071346ea-bffa-4465-9551-2e48edf35320\Compiler\QNX650_520\target\qnx6/x86/lib/gcc/5.2.0 -L C:\ProgramData\dSPACE\071346ea-bffa-4465-9551-2e48edf35320\Compiler\QNX650_520\target\qnx6/x86/lib -L C:\ProgramData\dSPACE\071346ea-bffa-4465-9551-2e48edf35320\Compiler\QNX650_520\target\qnx6/x86/usr/lib -L C:\ProgramData\dSPACE\071346ea-bffa-4465-9551-2e48edf35320\Compiler\QNX650_520\target\qnx6/x86/opt/lib -rpath-link C:\ProgramData\dSPACE\071346ea-bffa-4465-9551-2e48edf35320\Compiler\QNX650_520\target\qnx6/x86/lib/gcc/5.2.0:C:\ProgramData\dSPACE\071346ea-bffa-4465-9551-2e48edf35320\Compiler\QNX650_520\target\qnx6/x86/lib:C:\ProgramData\dSPACE\071346ea-bffa-4465-9551-2e48edf35320\Compiler\QNX650_520\target\qnx6/x86/usr/lib:C:\ProgramData\dSPACE\071346ea-bffa-4465-9551-2e48edf35320\Compiler\QNX650_520\target\qnx6/x86/opt/lib -v --unresolved-symbols=ignore-all -lstdc++ -lm -lgcc -lc -Bstatic -lc -lgcc c:/programdata/dspace/071346ea-bffa-4465-9551-2e48edf35320/compiler/qnx650_520/host/win32/x86/usr/bin/../lib/gcc/i486-pc-nto-qnx6.5.0/5.2.0/crtend.o C:\ProgramData\dSPACE\071346ea-bffa-4465-9551-2e48edf35320\Compiler\QNX650_520\target\qnx6/x86/lib/crtn.o
GNU ld (GNU Binutils) 2.25.1
Archive member included to satisfy reference by file (symbol)

STLA_MECHANICAL.a(STLA_MECHANICAL_dsrtmdlfcn.lo86)
                              dssimengine_accesspoint.o86 (STLA_MECHANICAL_DSRTInitMdl)
STLA_MECHANICAL.a(STLA_MECHANICAL_dsrttf.lo86)
                              rtosal_task.o86 (STLA_MECHANICAL_DSRTMdlOutputs0)
STLA_MECHANICAL.a(STLA_MECHANICAL.lo86)
                              STLA_MECHANICAL.a(STLA_MECHANICAL_dsrttf.lo86) (STLA_MECHANICAL_output)
STLA_MECHANICAL.a(STLA_MECHANICAL_data.lo86)
                              STLA_MECHANICAL.a(STLA_MECHANICAL.lo86) (rtP_r_gearUP)
STLA_MECHANICAL.a(STLA_MECHANICAL_dsrtvdf.lo86)
                              STLA_MECHANICAL.a(STLA_MECHANICAL.lo86) (STLA_MECHANICAL_rti_init_trc_pointers)
Punch_mechanical_B_sample_v3_6_cal_v2_C_rtwlib.lib(Punch_mechanical_B_sample_v3_6_cal_v2_C.lo86)
                              STLA_MECHANICAL.a(STLA_MECHANICAL.lo86) (Punch_mechanical_B_sample_v3_6_cal_v2_C_Init)
Punch_mechanical_B_sample_v3_6_cal_v2_C_rtwlib.lib(Punch_mechanical_B_sample_v3_6_cal_v2_C_dsrtvdf.lo86)
                              Punch_mechanical_B_sample_v3_6_cal_v2_C_rtwlib.lib(Punch_mechanical_B_sample_v3_6_cal_v2_C.lo86) (Punch_mechanical_B_sample_v3_6_cal_v2_C_rti_init_trc_pointers)
Punch_mechanical_B_sample_v3_6_cal_v2_C_rtwlib.lib(Punch_mechanical_B_sample_v3_6_cal_v2_C_9a4b384b_1_gateway.lo86)
                              Punch_mechanical_B_sample_v3_6_cal_v2_C_rtwlib.lib(Punch_mechanical_B_sample_v3_6_cal_v2_C.lo86) (Punch_mechanical_B_sample_v3_6_cal_v2_C_9a4b384b_1_gateway)
Punch_mechanical_B_sample_v3_6_cal_v2_C_rtwlib.lib(Punch_mechanical_B_sample_v3_6_cal_v2_C_9a4b384b_1.lo86)
                              Punch_mechanical_B_sample_v3_6_cal_v2_C_rtwlib.lib(Punch_mechanical_B_sample_v3_6_cal_v2_C_9a4b384b_1_gateway.lo86) (Punch_mechanical_B_sample_v3_6_cal_v2_C_9a4b384b_1_dae)
Punch_mechanical_B_sample_v3_6_cal_v2_C_rtwlib.lib(Punch_mechanical_B_sample_v3_6_cal_v2_C_9a4b384b_1_ds.lo86)
                              Punch_mechanical_B_sample_v3_6_cal_v2_C_rtwlib.lib(Punch_mechanical_B_sample_v3_6_cal_v2_C_9a4b384b_1.lo86) (Punch_mechanical_B_sample_v3_6_cal_v2_C_9a4b384b_1_dae_ds)
Punch_mechanical_B_sample_v3_6_cal_v2_C_rtwlib.lib(Punch_mechanical_B_sample_v3_6_cal_v2_C_9a4b384b_1_ds_cache_i.lo86)
                              Punch_mechanical_B_sample_v3_6_cal_v2_C_rtwlib.lib(Punch_mechanical_B_sample_v3_6_cal_v2_C_9a4b384b_1_ds.lo86) (Punch_mechanical_B_sample_v3_6_cal_v2_C_9a4b384b_1_ds_cache_i)
Punch_mechanical_B_sample_v3_6_cal_v2_C_rtwlib.lib(Punch_mechanical_B_sample_v3_6_cal_v2_C_9a4b384b_1_ds_assert.lo86)
                              Punch_mechanical_B_sample_v3_6_cal_v2_C_rtwlib.lib(Punch_mechanical_B_sample_v3_6_cal_v2_C_9a4b384b_1_ds.lo86) (Punch_mechanical_B_sample_v3_6_cal_v2_C_9a4b384b_1_ds_assert)
Punch_mechanical_B_sample_v3_6_cal_v2_C_rtwlib.lib(Punch_mechanical_B_sample_v3_6_cal_v2_C_9a4b384b_1_ds_q1.lo86)
                              Punch_mechanical_B_sample_v3_6_cal_v2_C_rtwlib.lib(Punch_mechanical_B_sample_v3_6_cal_v2_C_9a4b384b_1_ds.lo86) (Punch_mechanical_B_sample_v3_6_cal_v2_C_9a4b384b_1_ds_q1)
Punch_mechanical_B_sample_v3_6_cal_v2_C_rtwlib.lib(Punch_mechanical_B_sample_v3_6_cal_v2_C_9a4b384b_1_ds_dxf_p.lo86)
                              Punch_mechanical_B_sample_v3_6_cal_v2_C_rtwlib.lib(Punch_mechanical_B_sample_v3_6_cal_v2_C_9a4b384b_1_ds.lo86) (Punch_mechanical_B_sample_v3_6_cal_v2_C_9a4b384b_1_ds_dxf_p)
Punch_mechanical_B_sample_v3_6_cal_v2_C_rtwlib.lib(Punch_mechanical_B_sample_v3_6_cal_v2_C_9a4b384b_1_ds_dxm_p.lo86)
                              Punch_mechanical_B_sample_v3_6_cal_v2_C_rtwlib.lib(Punch_mechanical_B_sample_v3_6_cal_v2_C_9a4b384b_1_ds.lo86) (Punch_mechanical_B_sample_v3_6_cal_v2_C_9a4b384b_1_ds_dxm_p)
Punch_mechanical_B_sample_v3_6_cal_v2_C_rtwlib.lib(Punch_mechanical_B_sample_v3_6_cal_v2_C_9a4b384b_1_ds_dxdelt_p.lo86)
                              Punch_mechanical_B_sample_v3_6_cal_v2_C_rtwlib.lib(Punch_mechanical_B_sample_v3_6_cal_v2_C_9a4b384b_1_ds.lo86) (Punch_mechanical_B_sample_v3_6_cal_v2_C_9a4b384b_1_ds_dxdelt_p)
Punch_mechanical_B_sample_v3_6_cal_v2_C_rtwlib.lib(Punch_mechanical_B_sample_v3_6_cal_v2_C_9a4b384b_1_ds_f.lo86)
                              Punch_mechanical_B_sample_v3_6_cal_v2_C_rtwlib.lib(Punch_mechanical_B_sample_v3_6_cal_v2_C_9a4b384b_1_ds.lo86) (Punch_mechanical_B_sample_v3_6_cal_v2_C_9a4b384b_1_ds_f)
Punch_mechanical_B_sample_v3_6_cal_v2_C_rtwlib.lib(Punch_mechanical_B_sample_v3_6_cal_v2_C_9a4b384b_1_ds_update_i.lo86)
                              Punch_mechanical_B_sample_v3_6_cal_v2_C_rtwlib.lib(Punch_mechanical_B_sample_v3_6_cal_v2_C_9a4b384b_1_ds.lo86) (Punch_mechanical_B_sample_v3_6_cal_v2_C_9a4b384b_1_ds_update_i)
Punch_mechanical_B_sample_v3_6_cal_v2_C_rtwlib.lib(Punch_mechanical_B_sample_v3_6_cal_v2_C_9a4b384b_1_ds_qx_p.lo86)
                              Punch_mechanical_B_sample_v3_6_cal_v2_C_rtwlib.lib(Punch_mechanical_B_sample_v3_6_cal_v2_C_9a4b384b_1_ds.lo86) (Punch_mechanical_B_sample_v3_6_cal_v2_C_9a4b384b_1_ds_qx_p)
Punch_mechanical_B_sample_v3_6_cal_v2_C_rtwlib.lib(Punch_mechanical_B_sample_v3_6_cal_v2_C_9a4b384b_1_ds_dxf.lo86)
                              Punch_mechanical_B_sample_v3_6_cal_v2_C_rtwlib.lib(Punch_mechanical_B_sample_v3_6_cal_v2_C_9a4b384b_1_ds.lo86) (Punch_mechanical_B_sample_v3_6_cal_v2_C_9a4b384b_1_ds_dxf)
Punch_mechanical_B_sample_v3_6_cal_v2_C_rtwlib.lib(Punch_mechanical_B_sample_v3_6_cal_v2_C_9a4b384b_1_ds_duf.lo86)
                              Punch_mechanical_B_sample_v3_6_cal_v2_C_rtwlib.lib(Punch_mechanical_B_sample_v3_6_cal_v2_C_9a4b384b_1_ds.lo86) (Punch_mechanical_B_sample_v3_6_cal_v2_C_9a4b384b_1_ds_duf)
Punch_mechanical_B_sample_v3_6_cal_v2_C_rtwlib.lib(Punch_mechanical_B_sample_v3_6_cal_v2_C_9a4b384b_1_ds_obs_act.lo86)
                              Punch_mechanical_B_sample_v3_6_cal_v2_C_rtwlib.lib(Punch_mechanical_B_sample_v3_6_cal_v2_C_9a4b384b_1_ds.lo86) (Punch_mechanical_B_sample_v3_6_cal_v2_C_9a4b384b_1_ds_obs_act)
Punch_mechanical_B_sample_v3_6_cal_v2_C_rtwlib.lib(Punch_mechanical_B_sample_v3_6_cal_v2_C_9a4b384b_1_ds_a.lo86)
                              Punch_mechanical_B_sample_v3_6_cal_v2_C_rtwlib.lib(Punch_mechanical_B_sample_v3_6_cal_v2_C_9a4b384b_1_ds.lo86) (Punch_mechanical_B_sample_v3_6_cal_v2_C_9a4b384b_1_ds_a)
Punch_mechanical_B_sample_v3_6_cal_v2_C_rtwlib.lib(Punch_mechanical_B_sample_v3_6_cal_v2_C_9a4b384b_1_ds_obs_exp.lo86)
                              Punch_mechanical_B_sample_v3_6_cal_v2_C_rtwlib.lib(Punch_mechanical_B_sample_v3_6_cal_v2_C_9a4b384b_1_ds.lo86) (Punch_mechanical_B_sample_v3_6_cal_v2_C_9a4b384b_1_ds_obs_exp)
Punch_mechanical_B_sample_v3_6_cal_v2_C_rtwlib.lib(Punch_mechanical_B_sample_v3_6_cal_v2_C_9a4b384b_1_ds_a_p.lo86)
                              Punch_mechanical_B_sample_v3_6_cal_v2_C_rtwlib.lib(Punch_mechanical_B_sample_v3_6_cal_v2_C_9a4b384b_1_ds.lo86) (Punch_mechanical_B_sample_v3_6_cal_v2_C_9a4b384b_1_ds_a_p)
Punch_mechanical_B_sample_v3_6_cal_v2_C_rtwlib.lib(Punch_mechanical_B_sample_v3_6_cal_v2_C_9a4b384b_1_ds_tdxf_p.lo86)
                              Punch_mechanical_B_sample_v3_6_cal_v2_C_rtwlib.lib(Punch_mechanical_B_sample_v3_6_cal_v2_C_9a4b384b_1_ds.lo86) (Punch_mechanical_B_sample_v3_6_cal_v2_C_9a4b384b_1_ds_tdxf_p)
Punch_mechanical_B_sample_v3_6_cal_v2_C_rtwlib.lib(Punch_mechanical_B_sample_v3_6_cal_v2_C_9a4b384b_1_ds_qx.lo86)
                              Punch_mechanical_B_sample_v3_6_cal_v2_C_rtwlib.lib(Punch_mechanical_B_sample_v3_6_cal_v2_C_9a4b384b_1_ds.lo86) (Punch_mechanical_B_sample_v3_6_cal_v2_C_9a4b384b_1_ds_qx)
Punch_mechanical_B_sample_v3_6_cal_v2_C_rtwlib.lib(Punch_mechanical_B_sample_v3_6_cal_v2_C_9a4b384b_1_ds_vmf.lo86)
                              Punch_mechanical_B_sample_v3_6_cal_v2_C_rtwlib.lib(Punch_mechanical_B_sample_v3_6_cal_v2_C_9a4b384b_1_ds.lo86) (Punch_mechanical_B_sample_v3_6_cal_v2_C_9a4b384b_1_ds_vmf)
Punch_mechanical_B_sample_v3_6_cal_v2_C_rtwlib.lib(Punch_mechanical_B_sample_v3_6_cal_v2_C_9a4b384b_1_ds_slf.lo86)
                              Punch_mechanical_B_sample_v3_6_cal_v2_C_rtwlib.lib(Punch_mechanical_B_sample_v3_6_cal_v2_C_9a4b384b_1_ds.lo86) (Punch_mechanical_B_sample_v3_6_cal_v2_C_9a4b384b_1_ds_slf)
Punch_mechanical_B_sample_v3_6_cal_v2_C_rtwlib.lib(Punch_mechanical_B_sample_v3_6_cal_v2_C_9a4b384b_1_ds_ic.lo86)
                              Punch_mechanical_B_sample_v3_6_cal_v2_C_rtwlib.lib(Punch_mechanical_B_sample_v3_6_cal_v2_C_9a4b384b_1_ds.lo86) (Punch_mechanical_B_sample_v3_6_cal_v2_C_9a4b384b_1_ds_ic)
Punch_mechanical_B_sample_v3_6_cal_v2_C_rtwlib.lib(Punch_mechanical_B_sample_v3_6_cal_v2_C_9a4b384b_1_ds_dxicr_p.lo86)
                              Punch_mechanical_B_sample_v3_6_cal_v2_C_rtwlib.lib(Punch_mechanical_B_sample_v3_6_cal_v2_C_9a4b384b_1_ds.lo86) (Punch_mechanical_B_sample_v3_6_cal_v2_C_9a4b384b_1_ds_dxicr_p)
Punch_mechanical_B_sample_v3_6_cal_v2_C_rtwlib.lib(Punch_mechanical_B_sample_v3_6_cal_v2_C_9a4b384b_1_ds_log.lo86)
                              Punch_mechanical_B_sample_v3_6_cal_v2_C_rtwlib.lib(Punch_mechanical_B_sample_v3_6_cal_v2_C_9a4b384b_1_ds.lo86) (Punch_mechanical_B_sample_v3_6_cal_v2_C_9a4b384b_1_ds_log)
Punch_mechanical_B_sample_v3_6_cal_v2_C_rtwlib.lib(Punch_mechanical_B_sample_v3_6_cal_v2_C_9a4b384b_1_ds_m.lo86)
                              Punch_mechanical_B_sample_v3_6_cal_v2_C_rtwlib.lib(Punch_mechanical_B_sample_v3_6_cal_v2_C_9a4b384b_1_ds.lo86) (Punch_mechanical_B_sample_v3_6_cal_v2_C_9a4b384b_1_ds_m)
Punch_mechanical_B_sample_v3_6_cal_v2_C_rtwlib.lib(Punch_mechanical_B_sample_v3_6_cal_v2_C_9a4b384b_1_ds_m_p.lo86)
                              Punch_mechanical_B_sample_v3_6_cal_v2_C_rtwlib.lib(Punch_mechanical_B_sample_v3_6_cal_v2_C_9a4b384b_1_ds.lo86) (Punch_mechanical_B_sample_v3_6_cal_v2_C_9a4b384b_1_ds_m_p)
Punch_mechanical_B_sample_v3_6_cal_v2_C_rtwlib.lib(Punch_mechanical_B_sample_v3_6_cal_v2_C_9a4b384b_1_ds_vmm.lo86)
                              Punch_mechanical_B_sample_v3_6_cal_v2_C_rtwlib.lib(Punch_mechanical_B_sample_v3_6_cal_v2_C_9a4b384b_1_ds.lo86) (Punch_mechanical_B_sample_v3_6_cal_v2_C_9a4b384b_1_ds_vmm)
Punch_mechanical_B_sample_v3_6_cal_v2_C_rtwlib.lib(Punch_mechanical_B_sample_v3_6_cal_v2_C_9a4b384b_1_ds_mode.lo86)
                              Punch_mechanical_B_sample_v3_6_cal_v2_C_rtwlib.lib(Punch_mechanical_B_sample_v3_6_cal_v2_C_9a4b384b_1_ds.lo86) (Punch_mechanical_B_sample_v3_6_cal_v2_C_9a4b384b_1_ds_mode)
Punch_mechanical_B_sample_v3_6_cal_v2_C_rtwlib.lib(Punch_mechanical_B_sample_v3_6_cal_v2_C_9a4b384b_1_ds_obs_all.lo86)
                              Punch_mechanical_B_sample_v3_6_cal_v2_C_rtwlib.lib(Punch_mechanical_B_sample_v3_6_cal_v2_C_9a4b384b_1_ds.lo86) (Punch_mechanical_B_sample_v3_6_cal_v2_C_9a4b384b_1_ds_obs_all)
Punch_mechanical_B_sample_v3_6_cal_v2_C_rtwlib.lib(Punch_mechanical_B_sample_v3_6_cal_v2_C_9a4b384b_1_ds_q1_p.lo86)
                              Punch_mechanical_B_sample_v3_6_cal_v2_C_rtwlib.lib(Punch_mechanical_B_sample_v3_6_cal_v2_C_9a4b384b_1_ds.lo86) (Punch_mechanical_B_sample_v3_6_cal_v2_C_9a4b384b_1_ds_q1_p)
Punch_mechanical_B_sample_v3_6_cal_v2_C_rtwlib.lib(Punch_mechanical_B_sample_v3_6_cal_v2_C_9a4b384b_1_ds_var_tol.lo86)
                              Punch_mechanical_B_sample_v3_6_cal_v2_C_rtwlib.lib(Punch_mechanical_B_sample_v3_6_cal_v2_C_9a4b384b_1_ds.lo86) (Punch_mechanical_B_sample_v3_6_cal_v2_C_9a4b384b_1_ds_var_tol)
Punch_mechanical_B_sample_v3_6_cal_v2_C_rtwlib.lib(Punch_mechanical_B_sample_v3_6_cal_v2_C_9a4b384b_1_ds_eq_tol.lo86)
                              Punch_mechanical_B_sample_v3_6_cal_v2_C_rtwlib.lib(Punch_mechanical_B_sample_v3_6_cal_v2_C_9a4b384b_1_ds.lo86) (Punch_mechanical_B_sample_v3_6_cal_v2_C_9a4b384b_1_ds_eq_tol)
Punch_mechanical_B_sample_v3_6_cal_v2_C_rtwlib.lib(Punch_mechanical_B_sample_v3_6_cal_v2_C_9a4b384b_1_ds_lv.lo86)
                              Punch_mechanical_B_sample_v3_6_cal_v2_C_rtwlib.lib(Punch_mechanical_B_sample_v3_6_cal_v2_C_9a4b384b_1_ds.lo86) (Punch_mechanical_B_sample_v3_6_cal_v2_C_9a4b384b_1_ds_lv)
Punch_mechanical_B_sample_v3_6_cal_v2_C_rtwlib.lib(Punch_mechanical_B_sample_v3_6_cal_v2_C_9a4b384b_1_ds_slv.lo86)
                              Punch_mechanical_B_sample_v3_6_cal_v2_C_rtwlib.lib(Punch_mechanical_B_sample_v3_6_cal_v2_C_9a4b384b_1_ds.lo86) (Punch_mechanical_B_sample_v3_6_cal_v2_C_9a4b384b_1_ds_slv)
Punch_mechanical_B_sample_v3_6_cal_v2_C_rtwlib.lib(Punch_mechanical_B_sample_v3_6_cal_v2_C_9a4b384b_1_ds_y.lo86)
                              Punch_mechanical_B_sample_v3_6_cal_v2_C_rtwlib.lib(Punch_mechanical_B_sample_v3_6_cal_v2_C_9a4b384b_1_ds.lo86) (Punch_mechanical_B_sample_v3_6_cal_v2_C_9a4b384b_1_ds_y)
Punch_mechanical_B_sample_v3_6_cal_v2_C_rtwlib.lib(Punch_mechanical_B_sample_v3_6_cal_v2_C_9a4b384b_1_ds_dxy.lo86)
                              Punch_mechanical_B_sample_v3_6_cal_v2_C_rtwlib.lib(Punch_mechanical_B_sample_v3_6_cal_v2_C_9a4b384b_1_ds.lo86) (Punch_mechanical_B_sample_v3_6_cal_v2_C_9a4b384b_1_ds_dxy)
Punch_mechanical_B_sample_v3_6_cal_v2_C_rtwlib.lib(Punch_mechanical_B_sample_v3_6_cal_v2_C_9a4b384b_1_ds_dxy_p.lo86)
                              Punch_mechanical_B_sample_v3_6_cal_v2_C_rtwlib.lib(Punch_mechanical_B_sample_v3_6_cal_v2_C_9a4b384b_1_ds.lo86) (Punch_mechanical_B_sample_v3_6_cal_v2_C_9a4b384b_1_ds_dxy_p)
Punch_mechanical_B_sample_v3_6_cal_v2_C_rtwlib.lib(Punch_mechanical_B_sample_v3_6_cal_v2_C_9a4b384b_1_ds_mdxy_p.lo86)
                              Punch_mechanical_B_sample_v3_6_cal_v2_C_rtwlib.lib(Punch_mechanical_B_sample_v3_6_cal_v2_C_9a4b384b_1_ds.lo86) (Punch_mechanical_B_sample_v3_6_cal_v2_C_9a4b384b_1_ds_mdxy_p)
Punch_mechanical_B_sample_v3_6_cal_v2_C_rtwlib.lib(Punch_mechanical_B_sample_v3_6_cal_v2_C_9a4b384b_1_ds_tdxy_p.lo86)
                              Punch_mechanical_B_sample_v3_6_cal_v2_C_rtwlib.lib(Punch_mechanical_B_sample_v3_6_cal_v2_C_9a4b384b_1_ds.lo86) (Punch_mechanical_B_sample_v3_6_cal_v2_C_9a4b384b_1_ds_tdxy_p)
Punch_mechanical_B_sample_v3_6_cal_v2_C_rtwlib.lib(Punch_mechanical_B_sample_v3_6_cal_v2_C_9a4b384b_1_ds_zc.lo86)
                              Punch_mechanical_B_sample_v3_6_cal_v2_C_rtwlib.lib(Punch_mechanical_B_sample_v3_6_cal_v2_C_9a4b384b_1_ds.lo86) (Punch_mechanical_B_sample_v3_6_cal_v2_C_9a4b384b_1_ds_zc)
rtwshared.lib(look1_pbinlcapw.lo86)
                              Punch_mechanical_B_sample_v3_6_cal_v2_C_rtwlib.lib(Punch_mechanical_B_sample_v3_6_cal_v2_C.lo86) (look1_pbinlcapw)
rtwshared.lib(look2_pbinlcapw.lo86)
                              Punch_mechanical_B_sample_v3_6_cal_v2_C_rtwlib.lib(Punch_mechanical_B_sample_v3_6_cal_v2_C.lo86) (look2_pbinlcapw)
rtwshared.lib(rt_backsubrr_dbl.lo86)
                              Punch_mechanical_B_sample_v3_6_cal_v2_C_rtwlib.lib(Punch_mechanical_B_sample_v3_6_cal_v2_C_9a4b384b_1.lo86) (rt_BackwardSubstitutionRR_Dbl)
rtwshared.lib(rt_forwardsubrr_dbl.lo86)
                              Punch_mechanical_B_sample_v3_6_cal_v2_C_rtwlib.lib(Punch_mechanical_B_sample_v3_6_cal_v2_C_9a4b384b_1.lo86) (rt_ForwardSubstitutionRR_Dbl)
rtwshared.lib(rt_lu_real.lo86)
                              Punch_mechanical_B_sample_v3_6_cal_v2_C_rtwlib.lib(Punch_mechanical_B_sample_v3_6_cal_v2_C_9a4b384b_1.lo86) (rt_lu_real)
rtwshared.lib(rt_nonfinite.lo86)
                              STLA_MECHANICAL.a(STLA_MECHANICAL.lo86) (rt_InitInfAndNaN)
rtwshared.lib(rtGetInf.lo86)  rtwshared.lib(rt_nonfinite.lo86) (rtGetInf)
rtwshared.lib(rtGetNaN.lo86)  rtwshared.lib(rt_nonfinite.lo86) (rtGetNaN)
ssc_sli_r2017b_dsx86_32_2.a(ssc_sli_0bd269e6.lo86)
                              Punch_mechanical_B_sample_v3_6_cal_v2_C_rtwlib.lib(Punch_mechanical_B_sample_v3_6_cal_v2_C.lo86) (nesl_get_registry)
ssc_sli_r2017b_dsx86_32_2.a(ssc_sli_5a0cb974.lo86)
                              ssc_sli_r2017b_dsx86_32_2.a(ssc_sli_0bd269e6.lo86) (ssc_sli_2ICKAUc2rtXm87BR1bAFp_)
ssc_sli_r2017b_dsx86_32_2.a(ssc_sli_c7dda239.lo86)
                              ssc_sli_r2017b_dsx86_32_2.a(ssc_sli_5a0cb974.lo86) (ssc_sli_fiJi3uM7OyMaTB_wGR7742)
ssc_sli_r2017b_dsx86_32_2.a(ssc_sli_fbdf29da.lo86)
                              Punch_mechanical_B_sample_v3_6_cal_v2_C_rtwlib.lib(Punch_mechanical_B_sample_v3_6_cal_v2_C_9a4b384b_1_gateway.lo86) (nesl_register_simulator_group)
ssc_sli_r2017b_dsx86_32_2.a(ssc_sli_fa0ce53e.lo86)
                              ssc_sli_r2017b_dsx86_32_2.a(ssc_sli_fbdf29da.lo86) (ssc_sli_Rurh8U_aGE7kCb83oxHdd_)
ssc_sli_r2017b_dsx86_32_2.a(ssc_sli_550a4805.lo86)
                              ssc_sli_r2017b_dsx86_32_2.a(ssc_sli_fa0ce53e.lo86) (ssc_sli_gFKP6pUbMSJAvH4pOgOLr0)
ssc_sli_r2017b_dsx86_32_2.a(ssc_sli_89d0f30a.lo86)
                              ssc_sli_r2017b_dsx86_32_2.a(ssc_sli_fa0ce53e.lo86) (ssc_sli__3HpsuD4tEkysyRqYOVuN2)
ssc_sli_r2017b_dsx86_32_2.a(ssc_sli_9c030181.lo86)
                              ssc_sli_r2017b_dsx86_32_2.a(ssc_sli_89d0f30a.lo86) (ssc_sli_E8RSLrfHgkqgx4wfXO6642)
ssc_sli_r2017b_dsx86_32_2.a(ssc_sli_dcd66f69.lo86)
                              ssc_sli_r2017b_dsx86_32_2.a(ssc_sli_89d0f30a.lo86) (ssc_sli_uVz2_8dEWPK_VhOuU1W_61)
ssc_sli_r2017b_dsx86_32_2.a(ssc_sli_eb0a5702.lo86)
                              ssc_sli_r2017b_dsx86_32_2.a(ssc_sli_89d0f30a.lo86) (ssc_sli_sHgG6i7aCvAP6u9uurhOT2)
ssc_sli_r2017b_dsx86_32_2.a(ssc_sli_0763c151.lo86)
                              ssc_sli_r2017b_dsx86_32_2.a(ssc_sli_89d0f30a.lo86) (ssc_sli_V7p69pHXW4rgivU3cJW5B2)
ssc_sli_r2017b_dsx86_32_2.a(ssc_sli_360cfd63.lo86)
                              ssc_sli_r2017b_dsx86_32_2.a(ssc_sli_89d0f30a.lo86) (ssc_sli_c8_UTMsLTHfyr5CjubrN51)
ssc_sli_r2017b_dsx86_32_2.a(ssc_sli_43618287.lo86)
                              ssc_sli_r2017b_dsx86_32_2.a(ssc_sli_89d0f30a.lo86) (ssc_sli_EB3M9tXZx509ANBJLEnDY0)
ssc_sli_r2017b_dsx86_32_2.a(ssc_sli_466b08dd.lo86)
                              ssc_sli_r2017b_dsx86_32_2.a(ssc_sli_89d0f30a.lo86) (ssc_sli_pFxqqiId48ny9EvEamQrt1)
ssc_sli_r2017b_dsx86_32_2.a(ssc_sli_4e028390.lo86)
                              ssc_sli_r2017b_dsx86_32_2.a(ssc_sli_466b08dd.lo86) (ssc_sli_t1mz1m4tkH_gEly9HfvtD_)
ssc_sli_r2017b_dsx86_32_2.a(ssc_sli_51dbd3b5.lo86)
                              ssc_sli_r2017b_dsx86_32_2.a(ssc_sli_89d0f30a.lo86) (ssc_sli_2x_QtpMTlSMJAjr57lVrn1)
ssc_sli_r2017b_dsx86_32_2.a(ssc_sli_62d81790.lo86)
                              ssc_sli_r2017b_dsx86_32_2.a(ssc_sli_89d0f30a.lo86) (ssc_sli_JpyjyF5oKSz9bh_1Or4v52)
ssc_sli_r2017b_dsx86_32_2.a(ssc_sli_77063d8b.lo86)
                              ssc_sli_r2017b_dsx86_32_2.a(ssc_sli_89d0f30a.lo86) (ssc_sli_C6J30L4RPDHSYMVHsit8f2)
ssc_sli_r2017b_dsx86_32_2.a(ssc_sli_7a618260.lo86)
                              ssc_sli_r2017b_dsx86_32_2.a(ssc_sli_89d0f30a.lo86) (ssc_sli_oOi2yMLNCrDwFx73MCtXx0)
ssc_sli_r2017b_dsx86_32_2.a(ssc_sli_7f630b0f.lo86)
                              ssc_sli_r2017b_dsx86_32_2.a(ssc_sli_466b08dd.lo86) (ssc_sli_jJ8u_rhn_sDwC_Zjeutny_)
ssc_sli_r2017b_dsx86_32_2.a(ssc_sli_8a64c4e2.lo86)
                              ssc_sli_r2017b_dsx86_32_2.a(ssc_sli_4e028390.lo86) (ssc_sli_gSpjnXrXH0lEZ69cTLftW_)
ssc_core_r2017b_dsx86_32_2.a(ssc_core_05058dd9.lo86)
                              Punch_mechanical_B_sample_v3_6_cal_v2_C_rtwlib.lib(Punch_mechanical_B_sample_v3_6_cal_v2_C_9a4b384b_1.lo86) (ne_dae_create)
ssc_core_r2017b_dsx86_32_2.a(ssc_core_1c6b0332.lo86)
                              ssc_core_r2017b_dsx86_32_2.a(ssc_core_05058dd9.lo86) (ssc_core_LhAARrcW_BZ5uJQX4PVan0)
ssc_core_r2017b_dsx86_32_2.a(ssc_core_2568b075.lo86)
                              Punch_mechanical_B_sample_v3_6_cal_v2_C_rtwlib.lib(Punch_mechanical_B_sample_v3_6_cal_v2_C.lo86) (neu_create_diagnostic_tree_printer)
ssc_core_r2017b_dsx86_32_2.a(ssc_core_360a4baf.lo86)
                              ssc_sli_r2017b_dsx86_32_2.a(ssc_sli_89d0f30a.lo86) (ssc_core__PyfTe0_4mfaADZpzds3p_)
ssc_core_r2017b_dsx86_32_2.a(ssc_core_4965213d.lo86)
                              ssc_core_r2017b_dsx86_32_2.a(ssc_core_2568b075.lo86) (ssc_core_BmcZfnah8TT3gDeIhSzt8_)
ssc_core_r2017b_dsx86_32_2.a(ssc_core_67d1f118.lo86)
                              ssc_core_r2017b_dsx86_32_2.a(ssc_core_05058dd9.lo86) (ssc_core_2ck4gAPWwcjZmJeLgOk742)
ssc_core_r2017b_dsx86_32_2.a(ssc_core_6b6b89d2.lo86)
                              ssc_core_r2017b_dsx86_32_2.a(ssc_core_67d1f118.lo86) (ssc_core_TliJB7XydE72SBNNVAEtu1)
ssc_core_r2017b_dsx86_32_2.a(ssc_core_6dd833f3.lo86)
                              ssc_core_r2017b_dsx86_32_2.a(ssc_core_67d1f118.lo86) (ssc_core_elG0Z6m31zdm6FxOcNTzA2)
ssc_core_r2017b_dsx86_32_2.a(ssc_core_8569edc5.lo86)
                              ssc_core_r2017b_dsx86_32_2.a(ssc_core_67d1f118.lo86) (ssc_core_5C0xhLOoRC3fJgi4RTlPT0)
ssc_core_r2017b_dsx86_32_2.a(ssc_core_8a6471dc.lo86)
                              ssc_core_r2017b_dsx86_32_2.a(ssc_core_67d1f118.lo86) (ssc_core_J3Ao_kQl749J_gAaotgXj1)
ssc_core_r2017b_dsx86_32_2.a(ssc_core_97d767fe.lo86)
                              Punch_mechanical_B_sample_v3_6_cal_v2_C_rtwlib.lib(Punch_mechanical_B_sample_v3_6_cal_v2_C.lo86) (neu_create_diagnostic_manager)
ssc_core_r2017b_dsx86_32_2.a(ssc_core_a4d4c45e.lo86)
                              ssc_core_r2017b_dsx86_32_2.a(ssc_core_67d1f118.lo86) (ssc_core_cFMkGB7h_L63UXdmos2Ip2)
ssc_core_r2017b_dsx86_32_2.a(ssc_core_abd5e7b4.lo86)
                              ssc_core_r2017b_dsx86_32_2.a(ssc_core_6dd833f3.lo86) (ssc_core_lC87bxvqqA2YcLjum2V6F0)
ssc_core_r2017b_dsx86_32_2.a(ssc_core_acb64294.lo86)
                              ssc_core_r2017b_dsx86_32_2.a(ssc_core_67d1f118.lo86) (ssc_core_Rw3BkFzG8gnY9kEHCmowX0)
ssc_core_r2017b_dsx86_32_2.a(ssc_core_acb6462e.lo86)
                              ssc_core_r2017b_dsx86_32_2.a(ssc_core_a4d4c45e.lo86) (ssc_core_rQuTqmilQ6n8XJr5DJcYk_)
ssc_core_r2017b_dsx86_32_2.a(ssc_core_b1038cbb.lo86)
                              ssc_core_r2017b_dsx86_32_2.a(ssc_core_67d1f118.lo86) (ssc_core_Ck0wX_rJ_iktUtP5JT98A2)
ssc_core_r2017b_dsx86_32_2.a(ssc_core_b10e34f4.lo86)
                              ssc_core_r2017b_dsx86_32_2.a(ssc_core_67d1f118.lo86) (ssc_core_upzasIKI73T5H12GhcJKO_)
ssc_core_r2017b_dsx86_32_2.a(ssc_core_b2b3b239.lo86)
                              ssc_core_r2017b_dsx86_32_2.a(ssc_core_05058dd9.lo86) (ssc_core_dbrEvcqKNUSn1WX_d_SnU_)
ssc_core_r2017b_dsx86_32_2.a(ssc_core_b402b40d.lo86)
                              ssc_core_r2017b_dsx86_32_2.a(ssc_core_67d1f118.lo86) (ssc_core_gk2YzOMNaO1L10iL2MTWo_)
ssc_core_r2017b_dsx86_32_2.a(ssc_core_bb0b2992.lo86)
                              ssc_core_r2017b_dsx86_32_2.a(ssc_core_acb6462e.lo86) (ssc_core_adZYJyhnmlQ1TPOWbUmYi0)
ssc_core_r2017b_dsx86_32_2.a(ssc_core_c3003040.lo86)
                              ssc_core_r2017b_dsx86_32_2.a(ssc_core_a4d4c45e.lo86) (ssc_core_nahQuflEVft3jG6R2nPsv_)
ssc_core_r2017b_dsx86_32_2.a(ssc_core_c5b63cb2.lo86)
                              ssc_sli_r2017b_dsx86_32_2.a(ssc_sli_89d0f30a.lo86) (ssc_core_umtzGYFtjuHkNtzcoD4qX0)
ssc_core_r2017b_dsx86_32_2.a(ssc_core_c607b660.lo86)
                              ssc_core_r2017b_dsx86_32_2.a(ssc_core_67d1f118.lo86) (ssc_core_sm_3M_JEK3Vj6_N2PRYR5_)
ssc_core_r2017b_dsx86_32_2.a(ssc_core_c8d83e88.lo86)
                              ssc_core_r2017b_dsx86_32_2.a(ssc_core_05058dd9.lo86) (ssc_core_z5_M_MI_Ay9YiX9B8rs56_)
ssc_core_r2017b_dsx86_32_2.a(ssc_core_cab615c8.lo86)
                              ssc_core_r2017b_dsx86_32_2.a(ssc_core_c8d83e88.lo86) (ssc_core_TFLMyp9S46TGiMjNWQngU_)
ssc_core_r2017b_dsx86_32_2.a(ssc_core_cabdc251.lo86)
                              ssc_core_r2017b_dsx86_32_2.a(ssc_core_67d1f118.lo86) (ssc_core_aSSVcmMMljSzLU_YlJkGl1)
ssc_core_r2017b_dsx86_32_2.a(ssc_core_cc067f58.lo86)
                              ssc_core_r2017b_dsx86_32_2.a(ssc_core_c8d83e88.lo86) (ssc_core_eQQZn0mK4z_YcF5hR7yJk2)
ssc_core_r2017b_dsx86_32_2.a(ssc_core_d06d763c.lo86)
                              ssc_core_r2017b_dsx86_32_2.a(ssc_core_67d1f118.lo86) (ssc_core_biIXXeRoHRpAgC9_WCCbS2)
ssc_core_r2017b_dsx86_32_2.a(ssc_core_d3d34d7c.lo86)
                              ssc_core_r2017b_dsx86_32_2.a(ssc_core_67d1f118.lo86) (ssc_core_Q8zN4VSHEAuFGp3fK_2A02)
ssc_core_r2017b_dsx86_32_2.a(ssc_core_d807fa59.lo86)
                              ssc_core_r2017b_dsx86_32_2.a(ssc_core_d06d763c.lo86) (ssc_core_4SD6l8P8QouU0LAfzJ7VA_)
ssc_core_r2017b_dsx86_32_2.a(ssc_core_d9d13dac.lo86)
                              ssc_core_r2017b_dsx86_32_2.a(ssc_core_bb0b2992.lo86) (ssc_core_cQ8TKXZ5_7JiUDwtUDzmq0)
ssc_core_r2017b_dsx86_32_2.a(ssc_core_deb7fd8d.lo86)
                              ssc_core_r2017b_dsx86_32_2.a(ssc_core_b2b3b239.lo86) (ssc_core_HXOOLijT3btWX73yDmy4C0)
ssc_core_r2017b_dsx86_32_2.a(ssc_core_e0d0866d.lo86)
                              ssc_core_r2017b_dsx86_32_2.a(ssc_core_67d1f118.lo86) (ssc_core_G4vlAAXeG84zHWDRpyPp_2)
ssc_core_r2017b_dsx86_32_2.a(ssc_core_e2b61d72.lo86)
                              ssc_core_r2017b_dsx86_32_2.a(ssc_core_67d1f118.lo86) (ssc_core_XHMFCG29I7WpkhrSZPbru_)
ssc_core_r2017b_dsx86_32_2.a(ssc_core_e400c1c2.lo86)
                              ssc_core_r2017b_dsx86_32_2.a(ssc_core_97d767fe.lo86) (ssc_core_I0_CyOiADc_VeNAqMLy092)
ssc_core_r2017b_dsx86_32_2.a(ssc_core_ee000fbe.lo86)
                              ssc_core_r2017b_dsx86_32_2.a(ssc_core_05058dd9.lo86) (ssc_core_z8JnA55sA_IR2MbuPWpVm1)
ssc_core_r2017b_dsx86_32_2.a(ssc_core_ee01086d.lo86)
                              ssc_core_r2017b_dsx86_32_2.a(ssc_core_05058dd9.lo86) (ssc_core_ARW3tZa9qG4qBAJmW7_6O2)
ssc_core_r2017b_dsx86_32_2.a(ssc_core_ee0f0141.lo86)
                              ssc_core_r2017b_dsx86_32_2.a(ssc_core_b2b3b239.lo86) (ssc_core_ZwHAm_2NMKU_gz_gq26x9_)
ssc_core_r2017b_dsx86_32_2.a(ssc_core_f9b6dbed.lo86)
                              ssc_core_r2017b_dsx86_32_2.a(ssc_core_ee0f0141.lo86) (ssc_core_XJ98Rdp7LAWduCaQ2G0kM_)
ssc_core_r2017b_dsx86_32_2.a(ssc_core_fa09e9e6.lo86)
                              ssc_core_r2017b_dsx86_32_2.a(ssc_core_67d1f118.lo86) (ssc_core_TZx5kGCYj_WuTkCj8X1uF_)
ssc_core_r2017b_dsx86_32_2.a(ssc_core_fbd34e62.lo86)
                              ssc_core_r2017b_dsx86_32_2.a(ssc_core_acb6462e.lo86) (ssc_core_fwQZmJzPHBi_PGsHDk3fx0)
ssc_core_r2017b_dsx86_32_2.a(ssc_core_ff06d9a4.lo86)
                              ssc_core_r2017b_dsx86_32_2.a(ssc_core_e0d0866d.lo86) (ssc_core_Kl6RwWmygRWr5BUjV6IGx_)
ssc_core_r2017b_dsx86_32_2.a(ssc_core_01dcc633.lo86)
                              ssc_core_r2017b_dsx86_32_2.a(ssc_core_8a6471dc.lo86) (ssc_core_ygIXPaw9WDUPsc2lj0Yoh0)
ssc_core_r2017b_dsx86_32_2.a(ssc_core_06ba68a6.lo86)
                              ssc_core_r2017b_dsx86_32_2.a(ssc_core_ee0f0141.lo86) (ssc_core_MduakhLy6AP85_FyUVoJX2)
ssc_core_r2017b_dsx86_32_2.a(ssc_core_0f019bd9.lo86)
                              ssc_core_r2017b_dsx86_32_2.a(ssc_core_6dd833f3.lo86) (ssc_core_MK_VphneVajX_SldLmEQq0)
ssc_core_r2017b_dsx86_32_2.a(ssc_core_0f0420a6.lo86)
                              ssc_core_r2017b_dsx86_32_2.a(ssc_core_cab615c8.lo86) (ssc_core_4j__kh8z8I8ltQ6wGYrps0)
ssc_core_r2017b_dsx86_32_2.a(ssc_core_1b0cafd5.lo86)
                              ssc_core_r2017b_dsx86_32_2.a(ssc_core_97d767fe.lo86) (ssc_core_JslMZiKqcnP95ggOb5exk_)
ssc_core_r2017b_dsx86_32_2.a(ssc_core_3169e4b7.lo86)
                              ssc_core_r2017b_dsx86_32_2.a(ssc_core_cab615c8.lo86) (ssc_core_dhrA8zmAPxlQneG4eVGDJ2)
ssc_core_r2017b_dsx86_32_2.a(ssc_core_37d4ea84.lo86)
                              ssc_core_r2017b_dsx86_32_2.a(ssc_core_a4d4c45e.lo86) (ssc_core_b0_xSyIJLUuOxv2Y8lAda2)
ssc_core_r2017b_dsx86_32_2.a(ssc_core_40dfdbdc.lo86)
                              ssc_core_r2017b_dsx86_32_2.a(ssc_core_d06d763c.lo86) (ssc_core_j1O7IJIgs7AcYJ6LVs67f1)
ssc_core_r2017b_dsx86_32_2.a(ssc_core_41017299.lo86)
                              ssc_core_r2017b_dsx86_32_2.a(ssc_core_67d1f118.lo86) (ssc_core_vSaQKcUZagg_AJCptR5FT0)
ssc_core_r2017b_dsx86_32_2.a(ssc_core_4666b45b.lo86)
                              ssc_core_r2017b_dsx86_32_2.a(ssc_core_6b6b89d2.lo86) (ssc_core_QASum97EN_NK90eDhNPce2)
ssc_core_r2017b_dsx86_32_2.a(ssc_core_48b1386a.lo86)
                              ssc_core_r2017b_dsx86_32_2.a(ssc_core_67d1f118.lo86) (ssc_core_PTIgSdOWO79t38OEhoj3W0)
ssc_core_r2017b_dsx86_32_2.a(ssc_core_4ad9135b.lo86)
                              ssc_core_r2017b_dsx86_32_2.a(ssc_core_67d1f118.lo86) (ssc_core_JWxzH_YHSy8uo86Pw3QdG2)
ssc_core_r2017b_dsx86_32_2.a(ssc_core_4db6bd68.lo86)
                              ssc_core_r2017b_dsx86_32_2.a(ssc_core_cab615c8.lo86) (ssc_core_1izsJmzPgj3MH27vTH1dI0)
ssc_core_r2017b_dsx86_32_2.a(ssc_core_4db86fcc.lo86)
                              ssc_core_r2017b_dsx86_32_2.a(ssc_core_c3003040.lo86) (ssc_core_eMT7Y6pGw19X0pZ8H2FnJ_)
ssc_core_r2017b_dsx86_32_2.a(ssc_core_4e03e39d.lo86)
                              ssc_core_r2017b_dsx86_32_2.a(ssc_core_d06d763c.lo86) (ssc_core_uZUXTgv2iOFXdsIkhCCl71)
ssc_core_r2017b_dsx86_32_2.a(ssc_core_54d55ae9.lo86)
                              ssc_core_r2017b_dsx86_32_2.a(ssc_core_6b6b89d2.lo86) (ssc_core_7Z4mSc7C1zHVb1rnZadkB1)
ssc_core_r2017b_dsx86_32_2.a(ssc_core_56b1a2bf.lo86)
                              ssc_core_r2017b_dsx86_32_2.a(ssc_core_67d1f118.lo86) (ssc_core_QZOt0DWUV_2evkoHyS77Q0)
ssc_core_r2017b_dsx86_32_2.a(ssc_core_59b034b8.lo86)
                              ssc_core_r2017b_dsx86_32_2.a(ssc_core_c8d83e88.lo86) (ssc_core_vDtkhv5OPK3G6obtMq0b4_)
ssc_core_r2017b_dsx86_32_2.a(ssc_core_5d6ba758.lo86)
                              ssc_core_r2017b_dsx86_32_2.a(ssc_core_6dd833f3.lo86) (ssc_core_A4cxMKUqzZnEkyTRrpIYy0)
ssc_core_r2017b_dsx86_32_2.a(ssc_core_68da074b.lo86)
                              ssc_core_r2017b_dsx86_32_2.a(ssc_core_6b6b89d2.lo86) (ssc_core_t4R1bBstEd4CW_gAokYLf1)
ssc_core_r2017b_dsx86_32_2.a(ssc_core_73d9c2b7.lo86)
                              ssc_core_r2017b_dsx86_32_2.a(ssc_core_e0d0866d.lo86) (ssc_core_3s2N3qN8bFWNmjMUJ6y_g0)
ssc_core_r2017b_dsx86_32_2.a(ssc_core_79dd08ab.lo86)
                              ssc_core_r2017b_dsx86_32_2.a(ssc_core_97d767fe.lo86) (ssc_core_Lo4EESuguNsJuDmGHU97O1)
ssc_core_r2017b_dsx86_32_2.a(ssc_core_7a613edb.lo86)
                              ssc_core_r2017b_dsx86_32_2.a(ssc_core_e0d0866d.lo86) (ssc_core_sKWsTuamPLkQUraSYYjOE_)
ssc_core_r2017b_dsx86_32_2.a(ssc_core_83db8762.lo86)
                              ssc_core_r2017b_dsx86_32_2.a(ssc_core_ee01086d.lo86) (ssc_core_rc2_jKrQ5UbdY4md_8wRJ_)
ssc_core_r2017b_dsx86_32_2.a(ssc_core_856738f2.lo86)
                              ssc_core_r2017b_dsx86_32_2.a(ssc_core_c8d83e88.lo86) (ssc_core_bX_IcBRA9CQZUddsJ8FM_0)
ssc_core_r2017b_dsx86_32_2.a(ssc_core_8d0064b8.lo86)
                              ssc_core_r2017b_dsx86_32_2.a(ssc_core_73d9c2b7.lo86) (ssc_core_2cGqYaxvHAPXxZ_Wgb6IU1)
ssc_core_r2017b_dsx86_32_2.a(ssc_core_96061071.lo86)
                              ssc_core_r2017b_dsx86_32_2.a(ssc_core_5d6ba758.lo86) (ssc_core_zQSfi0_ws5bNbEBAHyaPS1)
ssc_core_r2017b_dsx86_32_2.a(ssc_core_9c016445.lo86)
                              ssc_core_r2017b_dsx86_32_2.a(ssc_core_c8d83e88.lo86) (ssc_core_oxvHxb12AGWV7LUiBCr_42)
ssc_core_r2017b_dsx86_32_2.a(ssc_core_9dd110ad.lo86)
                              ssc_core_r2017b_dsx86_32_2.a(ssc_core_a4d4c45e.lo86) (ssc_core_6qiax1ZuRLZo_dHHA3PrV2)
ssc_core_r2017b_dsx86_32_2.a(ssc_core_9fb0e229.lo86)
                              ssc_core_r2017b_dsx86_32_2.a(ssc_core_b2b3b239.lo86) (ssc_core_8An1jaQnclgay5AHdupKI2)
ssc_core_r2017b_dsx86_32_2.a(ssc_core_9fb25b4f.lo86)
                              ssc_core_r2017b_dsx86_32_2.a(ssc_core_abd5e7b4.lo86) (ssc_core_k8C24ESd5mwOJJgWi_ed91)
ssc_core_r2017b_dsx86_32_2.a(ssc_core_a1d393be.lo86)
                              ssc_core_r2017b_dsx86_32_2.a(ssc_core_5d6ba758.lo86) (ssc_core_2AZ4Z_6qCmnYOMypncuh11)
ssc_core_r2017b_dsx86_32_2.a(ssc_core_a6b78ccc.lo86)
                              ssc_core_r2017b_dsx86_32_2.a(ssc_core_c8d83e88.lo86) (ssc_core_Fo_bBRjc39YHa5cwwd9GT2)
ssc_core_r2017b_dsx86_32_2.a(ssc_core_a867d880.lo86)
                              ssc_core_r2017b_dsx86_32_2.a(ssc_core_abd5e7b4.lo86) (ssc_core_9uGylseTy8OwzIejx96Pd1)
ssc_core_r2017b_dsx86_32_2.a(ssc_core_a9bf1ff2.lo86)
                              ssc_core_r2017b_dsx86_32_2.a(ssc_core_c3003040.lo86) (ssc_core_8lSd1f9j2wcPN2pVMfmls2)
ssc_core_r2017b_dsx86_32_2.a(ssc_core_abd05c18.lo86)
                              ssc_core_r2017b_dsx86_32_2.a(ssc_core_d807fa59.lo86) (ssc_core_nj9t3kS2eGwK_wZ_6I5gT_)
ssc_core_r2017b_dsx86_32_2.a(ssc_core_b3671372.lo86)
                              ssc_core_r2017b_dsx86_32_2.a(ssc_core_73d9c2b7.lo86) (ssc_core_JO3hmfj_hUpfsJsDp6btV1)
ssc_core_r2017b_dsx86_32_2.a(ssc_core_b7b88213.lo86)
                              ssc_core_r2017b_dsx86_32_2.a(ssc_core_c8d83e88.lo86) (ssc_core_VidamJOL1TN7ZwpE1QEqW2)
ssc_core_r2017b_dsx86_32_2.a(ssc_core_b96ebc21.lo86)
                              ssc_core_r2017b_dsx86_32_2.a(ssc_core_59b034b8.lo86) (ssc_core_sSWn9cdxHQhGj7S5B9N462)
ssc_core_r2017b_dsx86_32_2.a(ssc_core_c5b050d7.lo86)
                              ssc_core_r2017b_dsx86_32_2.a(ssc_core_40dfdbdc.lo86) (ssc_core_DWAv09NEtcA43YPg64BmR0)
ssc_core_r2017b_dsx86_32_2.a(ssc_core_d70a6a09.lo86)
                              ssc_core_r2017b_dsx86_32_2.a(ssc_core_f9b6dbed.lo86) (ssc_core_y0L_5RA_m0h06ACnMw_Fl2)
ssc_core_r2017b_dsx86_32_2.a(ssc_core_dcda6edd.lo86)
                              ssc_core_r2017b_dsx86_32_2.a(ssc_core_7a613edb.lo86) (ssc_core_Zbw8qNvuRLOoK_W_L8bN62)
ssc_core_r2017b_dsx86_32_2.a(ssc_core_09b5fa6e.lo86)
                              ssc_core_r2017b_dsx86_32_2.a(ssc_core_856738f2.lo86) (ssc_core_XkdjHdhExi4c12TaBfbhD2)
ssc_core_r2017b_dsx86_32_2.a(ssc_core_0bd666aa.lo86)
                              ssc_core_r2017b_dsx86_32_2.a(ssc_core_54d55ae9.lo86) (ssc_core_Q37iY0lJeqkuf7fZ5fKWW_)
ssc_core_r2017b_dsx86_32_2.a(ssc_core_76d825be.lo86)
                              ssc_core_r2017b_dsx86_32_2.a(ssc_core_a867d880.lo86) (ssc_core_GM1KHeKei9njxwMsNf13J2)
ssc_core_r2017b_dsx86_32_2.a(ssc_core_a4da1d0a.lo86)
                              ssc_core_r2017b_dsx86_32_2.a(ssc_core_09b5fa6e.lo86) (ssc_core_JrUPWlC9AHbSrGrR4F1Xz0)
ssc_core_r2017b_dsx86_32_2.a(ssc_core_bc648043.lo86)
                              ssc_core_r2017b_dsx86_32_2.a(ssc_core_c5b050d7.lo86) (ssc_core_KMTE_aBT_xXzVzJx5akgC1)
ssc_core_r2017b_dsx86_32_2.a(ssc_core_ce6a84bb.lo86)
                              ssc_core_r2017b_dsx86_32_2.a(ssc_core_0bd666aa.lo86) (ssc_core_f3kF7iQ_PEBvfrAHvLQe72)
ne_r2017b_dsx86_32_2.a(ne_59b4e14a.lo86)
                              ssc_core_r2017b_dsx86_32_2.a(ssc_core_8569edc5.lo86) (ne_OYjOyGec_Cu_P2TYG7Jwp_)
mc_r2017b_dsx86_32_2.a(mc_0bd30dee.lo86)
                              ssc_core_r2017b_dsx86_32_2.a(ssc_core_c607b660.lo86) (mc_Zra4dUIxxYK_M2KNCwYsF_)
mc_r2017b_dsx86_32_2.a(mc_110e6c6c.lo86)
                              ssc_core_r2017b_dsx86_32_2.a(ssc_core_d3d34d7c.lo86) (mc_NlZU_fU2r5ky1zQSpwoUA1)
mc_r2017b_dsx86_32_2.a(mc_15d828ca.lo86)
                              ssc_core_r2017b_dsx86_32_2.a(ssc_core_abd5e7b4.lo86) (mc_aMPI1g4IJzx_se88DNXxp_)
mc_r2017b_dsx86_32_2.a(mc_2565d6e0.lo86)
                              ssc_sli_r2017b_dsx86_32_2.a(ssc_sli_eb0a5702.lo86) (mc_mxm21WWs6l5c_8l2dz6850)
mc_r2017b_dsx86_32_2.a(mc_47b8cebe.lo86)
                              Punch_mechanical_B_sample_v3_6_cal_v2_C_rtwlib.lib(Punch_mechanical_B_sample_v3_6_cal_v2_C_9a4b384b_1.lo86) (mc_get_csparse_linear_algebra)
mc_r2017b_dsx86_32_2.a(mc_4b0301c6.lo86)
                              ssc_core_r2017b_dsx86_32_2.a(ssc_core_856738f2.lo86) (mc_KpKqaZjZ2rh3lSToFa7Oa2)
mc_r2017b_dsx86_32_2.a(mc_52623861.lo86)
                              mc_r2017b_dsx86_32_2.a(mc_2565d6e0.lo86) (mc_f2vwQIrcxUZfF8toz63Ia0)
mc_r2017b_dsx86_32_2.a(mc_53b1fc84.lo86)
                              ssc_core_r2017b_dsx86_32_2.a(ssc_core_cc067f58.lo86) (mc_jn62AV6O9_qg9YBv46ewI_)
mc_r2017b_dsx86_32_2.a(mc_550847c3.lo86)
                              ssc_core_r2017b_dsx86_32_2.a(ssc_core_acb6462e.lo86) (mc_GPwfjJHcyafYihHgGCzGj1)
mc_r2017b_dsx86_32_2.a(mc_5766048f.lo86)
                              ssc_core_r2017b_dsx86_32_2.a(ssc_core_856738f2.lo86) (mc_4RuRZ7lx0_AIV_2RbGDcv2)
mc_r2017b_dsx86_32_2.a(mc_59b6e413.lo86)
                              ssc_core_r2017b_dsx86_32_2.a(ssc_core_67d1f118.lo86) (mc_unUcHqjWIYGRq_Mtqq_Nn2)
mc_r2017b_dsx86_32_2.a(mc_630dda0e.lo86)
                              mc_r2017b_dsx86_32_2.a(mc_47b8cebe.lo86) (mc_myrncps3Bp4niT9SMNSFU0)
mc_r2017b_dsx86_32_2.a(mc_67da4f41.lo86)
                              ssc_core_r2017b_dsx86_32_2.a(ssc_core_67d1f118.lo86) (mc_lWin2S7t5q07svjpaKvX60)
mc_r2017b_dsx86_32_2.a(mc_6b6d311a.lo86)
                              mc_r2017b_dsx86_32_2.a(mc_110e6c6c.lo86) (mc_KsHKr785vZol8pKqB3aCB_)
mc_r2017b_dsx86_32_2.a(mc_7bbf41f0.lo86)
                              ssc_sli_r2017b_dsx86_32_2.a(ssc_sli_89d0f30a.lo86) (mc_FtZHnvAu1ydcKmSyTHoPB_)
mc_r2017b_dsx86_32_2.a(mc_7d0547c8.lo86)
                              ssc_core_r2017b_dsx86_32_2.a(ssc_core_b2b3b239.lo86) (mc_XPd7yGMWFG3KbpflsI_GY0)
mc_r2017b_dsx86_32_2.a(mc_7d099de7.lo86)
                              ssc_core_r2017b_dsx86_32_2.a(ssc_core_0bd666aa.lo86) (mc_SJYqDKFkTaQ8OxPd4_Kr52)
mc_r2017b_dsx86_32_2.a(mc_7eb21b39.lo86)
                              ssc_core_r2017b_dsx86_32_2.a(ssc_core_cc067f58.lo86) (mc_abIAarmr8Ew9IVTjehCYM1)
mc_r2017b_dsx86_32_2.a(mc_81b5717e.lo86)
                              mc_r2017b_dsx86_32_2.a(mc_6b6d311a.lo86) (mc_4NUC47j4aJxHBwMhDbTZV0)
mc_r2017b_dsx86_32_2.a(mc_89d597cf.lo86)
                              mc_r2017b_dsx86_32_2.a(mc_2565d6e0.lo86) (mc_UIJXHcO0bfWk_WsGNAlpf0)
mc_r2017b_dsx86_32_2.a(mc_90b6aa0a.lo86)
                              ssc_sli_r2017b_dsx86_32_2.a(ssc_sli_466b08dd.lo86) (mc_S33zPe8SknN9LcYhCb5wi0)
mc_r2017b_dsx86_32_2.a(mc_9ab7d9b0.lo86)
                              ssc_core_r2017b_dsx86_32_2.a(ssc_core_6b6b89d2.lo86) (mc_OL48aY8jC_rr0I80efya01)
mc_r2017b_dsx86_32_2.a(mc_9b6c1529.lo86)
                              ssc_core_r2017b_dsx86_32_2.a(ssc_core_e0d0866d.lo86) (mc_get_csparse_rect_la)
mc_r2017b_dsx86_32_2.a(mc_a2647600.lo86)
                              ssc_core_r2017b_dsx86_32_2.a(ssc_core_6b6b89d2.lo86) (mc_t_X32k0vqEkR0plJgGFe_1)
mc_r2017b_dsx86_32_2.a(mc_a26bab1a.lo86)
                              ssc_core_r2017b_dsx86_32_2.a(ssc_core_abd5e7b4.lo86) (mc_Xavb0madru2NAUNgFTYba_)
mc_r2017b_dsx86_32_2.a(mc_a3b90582.lo86)
                              mc_r2017b_dsx86_32_2.a(mc_0bd30dee.lo86) (mc_l5altUMKhzcgn29nXbhIi1)
mc_r2017b_dsx86_32_2.a(mc_a865d1dd.lo86)
                              mc_r2017b_dsx86_32_2.a(mc_2565d6e0.lo86) (mc_QaMoA1QXcw6Zcx4O5Gmng2)
mc_r2017b_dsx86_32_2.a(mc_acb3fad7.lo86)
                              ssc_core_r2017b_dsx86_32_2.a(ssc_core_e0d0866d.lo86) (mc_BIV1Q2w3myHBDOtEHTPQS0)
mc_r2017b_dsx86_32_2.a(mc_af0cc4c9.lo86)
                              ssc_core_r2017b_dsx86_32_2.a(ssc_core_c8d83e88.lo86) (mc_Tl2msQum94U8SyO_whoMQ0)
mc_r2017b_dsx86_32_2.a(mc_b0de9cbc.lo86)
                              mc_r2017b_dsx86_32_2.a(mc_89d597cf.lo86) (mc_aXUfSyY8L22Gta0NH_3eO0)
mc_r2017b_dsx86_32_2.a(mc_b362c5eb.lo86)
                              mc_r2017b_dsx86_32_2.a(mc_7d099de7.lo86) (mc_voLsvdJ9A7h6y6ZLFojVa1)
mc_r2017b_dsx86_32_2.a(mc_b7b03d44.lo86)
                              mc_r2017b_dsx86_32_2.a(mc_47b8cebe.lo86) (mc_7TIwraGWa7_N5cUNFCHh5_)
mc_r2017b_dsx86_32_2.a(mc_b96a0bad.lo86)
                              ssc_sli_r2017b_dsx86_32_2.a(ssc_sli_89d0f30a.lo86) (mc_Gc2NB6_It3aMHmJd87WtV0)
mc_r2017b_dsx86_32_2.a(mc_bb0520ee.lo86)
                              mc_r2017b_dsx86_32_2.a(mc_53b1fc84.lo86) (mc_Um0_uBe2nXcaztNK3no_11)
mc_r2017b_dsx86_32_2.a(mc_bdbb9b78.lo86)
                              ssc_core_r2017b_dsx86_32_2.a(ssc_core_67d1f118.lo86) (mc_o_O3AXzlvmVYCVkAze6Ln1)
mc_r2017b_dsx86_32_2.a(mc_c8d25d23.lo86)
                              ssc_core_r2017b_dsx86_32_2.a(ssc_core_09b5fa6e.lo86) (mc_DIUpfST__9_5sghsTXkhZ_)
mc_r2017b_dsx86_32_2.a(mc_d20085b7.lo86)
                              ssc_core_r2017b_dsx86_32_2.a(ssc_core_73d9c2b7.lo86) (mc_25vUlwvTD87V9ZLY4dJ7n1)
mc_r2017b_dsx86_32_2.a(mc_d9d38185.lo86)
                              ssc_core_r2017b_dsx86_32_2.a(ssc_core_a1d393be.lo86) (mc_AIoYIG4w8ypWMKN8qFvtv0)
mc_r2017b_dsx86_32_2.a(mc_e7bc2f1a.lo86)
                              mc_r2017b_dsx86_32_2.a(mc_2565d6e0.lo86) (mc_Nf5R0F6K47SZgpezuH2h50)
mc_r2017b_dsx86_32_2.a(mc_e969ae87.lo86)
                              ssc_core_r2017b_dsx86_32_2.a(ssc_core_73d9c2b7.lo86) (mc_8Q1OSIcMmHrMFF7V3ir3e0)
mc_r2017b_dsx86_32_2.a(mc_edbf543c.lo86)
                              mc_r2017b_dsx86_32_2.a(mc_89d597cf.lo86) (mc_44AOPmPSJ1MEAK8AmzgpZ2)
mc_r2017b_dsx86_32_2.a(mc_ee000fbe.lo86)
                              mc_r2017b_dsx86_32_2.a(mc_2565d6e0.lo86) (mc_5YpKWqv65FwV7t0cG26tq2)
mc_r2017b_dsx86_32_2.a(mc_efdea3a7.lo86)
                              ssc_sli_r2017b_dsx86_32_2.a(ssc_sli_89d0f30a.lo86) (mc_msJ_DKVCQj8y5_UgtqNhu2)
mc_r2017b_dsx86_32_2.a(mc_f3be157c.lo86)
                              ssc_core_r2017b_dsx86_32_2.a(ssc_core_cc067f58.lo86) (mc_au9R6wbYTq7lvLXSjCKmr2)
mc_r2017b_dsx86_32_2.a(mc_fcb15a9b.lo86)
                              ssc_core_r2017b_dsx86_32_2.a(ssc_core_73d9c2b7.lo86) (mc_cQv_ZCNfIS6i2SMCSWGyn1)
mc_r2017b_dsx86_32_2.a(mc_fd619d14.lo86)
                              ssc_sli_r2017b_dsx86_32_2.a(ssc_sli_89d0f30a.lo86) (mc_jyMMGS25w7v9L5LqhaQtd_)
mc_r2017b_dsx86_32_2.a(mc_fd6341bb.lo86)
                              ssc_core_r2017b_dsx86_32_2.a(ssc_core_83db8762.lo86) (mc_tAN_wuZwKMeN0_XzEkscr_)
mc_r2017b_dsx86_32_2.a(mc_03b98f6f.lo86)
                              mc_r2017b_dsx86_32_2.a(mc_52623861.lo86) (mc_5CcrZ2CLOZnOOkryH5CHr0)
mc_r2017b_dsx86_32_2.a(mc_0d6fd085.lo86)
                              mc_r2017b_dsx86_32_2.a(mc_acb3fad7.lo86) (mc_HEOWeGj1KlhDbpniMXXWF1)
mc_r2017b_dsx86_32_2.a(mc_0ed73c49.lo86)
                              mc_r2017b_dsx86_32_2.a(mc_2565d6e0.lo86) (mc_798bn9wMrS5vtrBIqDwMf0)
mc_r2017b_dsx86_32_2.a(mc_11086079.lo86)
                              mc_r2017b_dsx86_32_2.a(mc_59b6e413.lo86) (mc_LEkjn0HScoulloiZuU3yi_)
mc_r2017b_dsx86_32_2.a(mc_15d12d95.lo86)
                              mc_r2017b_dsx86_32_2.a(mc_2565d6e0.lo86) (mc_8lzqkdoXfarQqLfjfrEKU_)
mc_r2017b_dsx86_32_2.a(mc_2cdc96b4.lo86)
                              mc_r2017b_dsx86_32_2.a(mc_89d597cf.lo86) (mc_PEkGs_0ndRJaos_yJJtFu0)
mc_r2017b_dsx86_32_2.a(mc_32dc008a.lo86)
                              mc_r2017b_dsx86_32_2.a(mc_47b8cebe.lo86) (mc_velqwEVC8fLQCaCDqKcxE1)
mc_r2017b_dsx86_32_2.a(mc_3e66abdf.lo86)
                              mc_r2017b_dsx86_32_2.a(mc_9b6c1529.lo86) (mc_KeWpRWVqC8tjvlCRsE1DV1)
mc_r2017b_dsx86_32_2.a(mc_51d4094e.lo86)
                              mc_r2017b_dsx86_32_2.a(mc_2cdc96b4.lo86) (mc_GO6x_Rqz9PsT5rw6AHrHt_)
mc_r2017b_dsx86_32_2.a(mc_52688a58.lo86)
                              mc_r2017b_dsx86_32_2.a(mc_2cdc96b4.lo86) (mc_oO4saFSDxaOgIQQDolzdI2)
mc_r2017b_dsx86_32_2.a(mc_5d65cd86.lo86)
                              mc_r2017b_dsx86_32_2.a(mc_b96a0bad.lo86) (mc_DYHqOwnpTvvDXsUX3Ci520)
mc_r2017b_dsx86_32_2.a(mc_67da200d.lo86)
                              mc_r2017b_dsx86_32_2.a(mc_89d597cf.lo86) (mc_7nG9lUdK3T_me5heU563C0)
mc_r2017b_dsx86_32_2.a(mc_6fb1c336.lo86)
                              mc_r2017b_dsx86_32_2.a(mc_2cdc96b4.lo86) (mc_MnSbKBBbLve56h73H6jVJ_)
mc_r2017b_dsx86_32_2.a(mc_7a613aec.lo86)
                              mc_r2017b_dsx86_32_2.a(mc_03b98f6f.lo86) (mc_2VhAsaQm8j1BqRig7Y94l1)
mc_r2017b_dsx86_32_2.a(mc_7cd58f0b.lo86)
                              mc_r2017b_dsx86_32_2.a(mc_89d597cf.lo86) (mc_ukUJI5gik_YiLRv4PQY4_2)
mc_r2017b_dsx86_32_2.a(mc_7cdbe436.lo86)
                              mc_r2017b_dsx86_32_2.a(mc_67da200d.lo86) (mc_6wzDapiXh25sZAQnDu37x_)
mc_r2017b_dsx86_32_2.a(mc_870ec75e.lo86)
                              mc_r2017b_dsx86_32_2.a(mc_a2647600.lo86) (mc_i63xoebOrVKbN3ULxVfP_2)
mc_r2017b_dsx86_32_2.a(mc_9b6376d1.lo86)
                              mc_r2017b_dsx86_32_2.a(mc_870ec75e.lo86) (mc_djxwwgYfpBI455bO6AUGz_)
mc_r2017b_dsx86_32_2.a(mc_dbbb14d2.lo86)
                              mc_r2017b_dsx86_32_2.a(mc_0ed73c49.lo86) (mc_IlEmqSHDAWyAGgiaxQzF72)
mc_r2017b_dsx86_32_2.a(mc_dcdddfae.lo86)
                              mc_r2017b_dsx86_32_2.a(mc_51d4094e.lo86) (mc_K6uvj2uJ5v60jMJkGDezJ1)
mc_r2017b_dsx86_32_2.a(mc_debb448f.lo86)
                              mc_r2017b_dsx86_32_2.a(mc_edbf543c.lo86) (mc_fLYGXm9ZEhPX6ig3Hkb8n0)
mc_r2017b_dsx86_32_2.a(mc_220ba961.lo86)
                              mc_r2017b_dsx86_32_2.a(mc_870ec75e.lo86) (mc_uFudiZmchL_QLLrSuWv_w1)
ex_r2017b_dsx86_32_2.a(ex_04d5441d.lo86)
                              Punch_mechanical_B_sample_v3_6_cal_v2_C_rtwlib.lib(Punch_mechanical_B_sample_v3_6_cal_v2_C_9a4b384b_1_ds_f.lo86) (tlu2_1d_linear_nearest_value)
ex_r2017b_dsx86_32_2.a(ex_18b4440a.lo86)
                              ex_r2017b_dsx86_32_2.a(ex_04d5441d.lo86) (ex_kxquG9pkEjt4fXtMQOsqG2)
ex_r2017b_dsx86_32_2.a(ex_8a6fc761.lo86)
                              ex_r2017b_dsx86_32_2.a(ex_04d5441d.lo86) (ex_ia6STLGqo9aFeiYN0gcmB_)
pm_r2017b_dsx86_32_2.a(pm_09bc42e2.lo86)
                              ssc_core_r2017b_dsx86_32_2.a(ssc_core_8a6471dc.lo86) (pm_FBD_ZCGRyF9Zix4mvl6Ip0)
pm_r2017b_dsx86_32_2.a(pm_14098e54.lo86)
                              mc_r2017b_dsx86_32_2.a(mc_7d099de7.lo86) (pm_nz2UGYq4cnG1apCgKensi1)
pm_r2017b_dsx86_32_2.a(pm_26dc3230.lo86)
                              ssc_core_r2017b_dsx86_32_2.a(ssc_core_856738f2.lo86) (pmf_get_eps)
pm_r2017b_dsx86_32_2.a(pm_4fd5f5b9.lo86)
                              Punch_mechanical_B_sample_v3_6_cal_v2_C_rtwlib.lib(Punch_mechanical_B_sample_v3_6_cal_v2_C.lo86) (pm_default_allocator)
pm_r2017b_dsx86_32_2.a(pm_fed8c2c9.lo86)
                              ssc_sli_r2017b_dsx86_32_2.a(ssc_sli_89d0f30a.lo86) (pm_rv_equals_rv)
C:\Program Files\dSPACE RCPHIL 2018-A\SCALEXIO\Lib\libm_fastpow.a(w_pow.o)
                              ssc_core_r2017b_dsx86_32_2.a(ssc_core_67d1f118.lo86) (pow)
C:\Program Files\dSPACE RCPHIL 2018-A\SCALEXIO\Lib\libm_fastpow.a(e_pow.o)
                              C:\Program Files\dSPACE RCPHIL 2018-A\SCALEXIO\Lib\libm_fastpow.a(w_pow.o) (__ieee754_pow)

As-needed library included to satisfy reference by file (symbol)

libDsRealTimeTestingRP.so.1   rtosal_simengineap.o86 (dsrtt_mp_register_config)

Discarded input sections

 __x86.get_pc_thunk.dx
                0x0000000000000000        0x8 c:/programdata/dspace/071346ea-bffa-4465-9551-2e48edf35320/compiler/qnx650_520/host/win32/x86/usr/bin/../lib/gcc/i486-pc-nto-qnx6.5.0/5.2.0/crtbegin.o
 __x86.get_pc_thunk.bx
                0x0000000000000000        0x8 c:/programdata/dspace/071346ea-bffa-4465-9551-2e48edf35320/compiler/qnx650_520/host/win32/x86/usr/bin/../lib/gcc/i486-pc-nto-qnx6.5.0/5.2.0/crtbegin.o
 .group         0x0000000000000000        0x8 dssimengine_main.o86
 .group         0x0000000000000000        0x8 dssimengine_main.o86
 .group         0x0000000000000000        0x8 dssimengine_main.o86
 .group         0x0000000000000000        0x8 rtosal_task.o86
 .group         0x0000000000000000        0x8 rtosal_task.o86
 .group         0x0000000000000000        0x8 rtosal_task.o86
 __x86.get_pc_thunk.dx
                0x0000000000000000        0x8 c:/programdata/dspace/071346ea-bffa-4465-9551-2e48edf35320/compiler/qnx650_520/host/win32/x86/usr/bin/../lib/gcc/i486-pc-nto-qnx6.5.0/5.2.0/crtend.o
 .text.__x86.get_pc_thunk.dx
                0x0000000000000000        0x4 c:/programdata/dspace/071346ea-bffa-4465-9551-2e48edf35320/compiler/qnx650_520/host/win32/x86/usr/bin/../lib/gcc/i486-pc-nto-qnx6.5.0/5.2.0/crtend.o

Memory Configuration

Name             Origin             Length             Attributes
*default*        0x0000000000000000 0xffffffffffffffff

Linker script and memory map

LOAD C:\ProgramData\dSPACE\071346ea-bffa-4465-9551-2e48edf35320\Compiler\QNX650_520\target\qnx6/x86/lib/crt1.o
LOAD C:\ProgramData\dSPACE\071346ea-bffa-4465-9551-2e48edf35320\Compiler\QNX650_520\target\qnx6/x86/lib/crti.o
LOAD c:/programdata/dspace/071346ea-bffa-4465-9551-2e48edf35320/compiler/qnx650_520/host/win32/x86/usr/bin/../lib/gcc/i486-pc-nto-qnx6.5.0/5.2.0/crtbegin.o
                0x0000000000000000                _DSPACE_START = 0x0
                0x0000000000000000                _DSPACE_START_ = 0x0
                0x00000000000009ce                DS_TARGET_PLATFORM = 0x9ce
START GROUP
LOAD mdladapter_mdlfunctions.o86
LOAD mdlCode_ap.o86
LOAD dssimengine_accesspoint.o86
LOAD dssimengine_api.o86
LOAD dssimengine_main.o86
LOAD rtosal_task.o86
LOAD rtosal_taskap.o86
LOAD rtosal_simengineap.o86
LOAD IOCode_Data.o86
LOAD mdlcfg_interapplcom.o86
LOAD rtosal_interapplcom.o86
LOAD rtwshared.lib
LOAD ssc_sli_r2017b_dsx86_32_2.a
LOAD ssc_core_r2017b_dsx86_32_2.a
LOAD ne_r2017b_dsx86_32_2.a
LOAD mc_r2017b_dsx86_32_2.a
LOAD ex_r2017b_dsx86_32_2.a
LOAD pm_r2017b_dsx86_32_2.a
LOAD STLA_MECHANICAL.a
LOAD Punch_mechanical_B_sample_v3_6_cal_v2_C_rtwlib.lib
LOAD C:\Program Files\dSPACE RCPHIL 2018-A\SCALEXIO\Lib/libdsmpcommdrv.so
LOAD C:\Program Files\dSPACE RCPHIL 2018-A\SCALEXIO\Lib/libdscandrv.so
LOAD C:\Program Files\dSPACE RCPHIL 2018-A\SCALEXIO\Lib/libdslindrv.so
END GROUP
LOAD C:\Program Files\dSPACE RCPHIL 2018-A\SCALEXIO\Lib/libDsRtLib.so
LOAD C:\Program Files\dSPACE RCPHIL 2018-A\SCALEXIO\Lib\libm_fastpow.a
LOAD C:\ProgramData\dSPACE\071346ea-bffa-4465-9551-2e48edf35320\Compiler\QNX650_520\target\qnx6/x86/lib/gcc/5.2.0/libstdc++.so
LOAD C:\ProgramData\dSPACE\071346ea-bffa-4465-9551-2e48edf35320\Compiler\QNX650_520\target\qnx6/x86/lib/libm.so
LOAD c:/programdata/dspace/071346ea-bffa-4465-9551-2e48edf35320/compiler/qnx650_520/host/win32/x86/usr/bin/../lib/gcc/i486-pc-nto-qnx6.5.0/5.2.0\libgcc.a
LOAD C:\ProgramData\dSPACE\071346ea-bffa-4465-9551-2e48edf35320\Compiler\QNX650_520\target\qnx6/x86/lib/libc.so
LOAD C:\ProgramData\dSPACE\071346ea-bffa-4465-9551-2e48edf35320\Compiler\QNX650_520\target\qnx6/x86/lib\libc.a
LOAD c:/programdata/dspace/071346ea-bffa-4465-9551-2e48edf35320/compiler/qnx650_520/host/win32/x86/usr/bin/../lib/gcc/i486-pc-nto-qnx6.5.0/5.2.0\libgcc.a
LOAD c:/programdata/dspace/071346ea-bffa-4465-9551-2e48edf35320/compiler/qnx650_520/host/win32/x86/usr/bin/../lib/gcc/i486-pc-nto-qnx6.5.0/5.2.0/crtend.o
LOAD C:\ProgramData\dSPACE\071346ea-bffa-4465-9551-2e48edf35320\Compiler\QNX650_520\target\qnx6/x86/lib/crtn.o
                [!provide]                        PROVIDE (__executable_start, 0x8048000)
                0x0000000008048134                . = (0x8048000 + SIZEOF_HEADERS)

.interp         0x0000000008048134       0x14
 *(.interp)
 .interp        0x0000000008048134       0x14 C:\ProgramData\dSPACE\071346ea-bffa-4465-9551-2e48edf35320\Compiler\QNX650_520\target\qnx6/x86/lib/crt1.o

.note           0x0000000008048148       0x18
 .note          0x0000000008048148       0x18 C:\ProgramData\dSPACE\071346ea-bffa-4465-9551-2e48edf35320\Compiler\QNX650_520\target\qnx6/x86/lib/crtn.o

.note.gnu.build-id
                0x0000000008048160       0x20
 *(.note.gnu.build-id)
 .note.gnu.build-id
                0x0000000008048160       0x20 C:\ProgramData\dSPACE\071346ea-bffa-4465-9551-2e48edf35320\Compiler\QNX650_520\target\qnx6/x86/lib/crt1.o

.hash           0x0000000008048180      0x274
 *(.hash)
 .hash          0x0000000008048180      0x274 C:\ProgramData\dSPACE\071346ea-bffa-4465-9551-2e48edf35320\Compiler\QNX650_520\target\qnx6/x86/lib/crt1.o

.gnu.hash
 *(.gnu.hash)

.dynsym         0x00000000080483f4      0x580
 *(.dynsym)
 .dynsym        0x00000000080483f4      0x580 C:\ProgramData\dSPACE\071346ea-bffa-4465-9551-2e48edf35320\Compiler\QNX650_520\target\qnx6/x86/lib/crt1.o

.dynstr         0x0000000008048974      0x8bb
 *(.dynstr)
 .dynstr        0x0000000008048974      0x8bb C:\ProgramData\dSPACE\071346ea-bffa-4465-9551-2e48edf35320\Compiler\QNX650_520\target\qnx6/x86/lib/crt1.o

.gnu.version    0x0000000008049230        0x0
 *(.gnu.version)
 .gnu.version   0x0000000008049230        0x0 C:\ProgramData\dSPACE\071346ea-bffa-4465-9551-2e48edf35320\Compiler\QNX650_520\target\qnx6/x86/lib/crt1.o

.gnu.version_d  0x0000000008049230        0x0
 *(.gnu.version_d)
 .gnu.version_d
                0x0000000008049230        0x0 C:\ProgramData\dSPACE\071346ea-bffa-4465-9551-2e48edf35320\Compiler\QNX650_520\target\qnx6/x86/lib/crt1.o

.gnu.version_r  0x0000000008049230        0x0
 *(.gnu.version_r)
 .gnu.version_r
                0x0000000008049230        0x0 C:\ProgramData\dSPACE\071346ea-bffa-4465-9551-2e48edf35320\Compiler\QNX650_520\target\qnx6/x86/lib/crt1.o

.rel.dyn        0x0000000008049230       0x50
 *(.rel.init)
 *(.rel.text .rel.text.* .rel.gnu.linkonce.t.*)
 .rel.text      0x0000000008049230        0x0 C:\ProgramData\dSPACE\071346ea-bffa-4465-9551-2e48edf35320\Compiler\QNX650_520\target\qnx6/x86/lib/crt1.o
 .rel.text.startup
                0x0000000008049230        0x0 C:\ProgramData\dSPACE\071346ea-bffa-4465-9551-2e48edf35320\Compiler\QNX650_520\target\qnx6/x86/lib/crt1.o
 *(.rel.fini)
 *(.rel.rodata .rel.rodata.* .rel.gnu.linkonce.r.*)
 .rel.rodata._ZTI18DsCApplicationMain
                0x0000000008049230        0x0 C:\ProgramData\dSPACE\071346ea-bffa-4465-9551-2e48edf35320\Compiler\QNX650_520\target\qnx6/x86/lib/crt1.o
 .rel.rodata._ZTV18DsCApplicationMain
                0x0000000008049230        0x0 C:\ProgramData\dSPACE\071346ea-bffa-4465-9551-2e48edf35320\Compiler\QNX650_520\target\qnx6/x86/lib/crt1.o
 .rel.rodata._ZTI24DsCRtosAlPeriodic_Task_2
                0x0000000008049230        0x0 C:\ProgramData\dSPACE\071346ea-bffa-4465-9551-2e48edf35320\Compiler\QNX650_520\target\qnx6/x86/lib/crt1.o
 .rel.rodata._ZTV24DsCRtosAlPeriodic_Task_2
                0x0000000008049230        0x0 C:\ProgramData\dSPACE\071346ea-bffa-4465-9551-2e48edf35320\Compiler\QNX650_520\target\qnx6/x86/lib/crt1.o
 *(.rel.data.rel.ro .rel.data.rel.ro.* .rel.gnu.linkonce.d.rel.ro.*)
 *(.rel.data .rel.data.* .rel.gnu.linkonce.d.*)
 *(.rel.tdata .rel.tdata.* .rel.gnu.linkonce.td.*)
 *(.rel.tbss .rel.tbss.* .rel.gnu.linkonce.tb.*)
 *(.rel.ctors)
 *(.rel.dtors)
 *(.rel.got)
 .rel.got       0x0000000008049230       0x30 C:\ProgramData\dSPACE\071346ea-bffa-4465-9551-2e48edf35320\Compiler\QNX650_520\target\qnx6/x86/lib/crt1.o
 *(.rel.sdata .rel.sdata.* .rel.gnu.linkonce.s.*)
 *(.rel.sbss .rel.sbss.* .rel.gnu.linkonce.sb.*)
 *(.rel.sdata2 .rel.sdata2.* .rel.gnu.linkonce.s2.*)
 *(.rel.sbss2 .rel.sbss2.* .rel.gnu.linkonce.sb2.*)
 *(.rel.bss .rel.bss.* .rel.gnu.linkonce.b.*)
 .rel.bss       0x0000000008049260       0x20 C:\ProgramData\dSPACE\071346ea-bffa-4465-9551-2e48edf35320\Compiler\QNX650_520\target\qnx6/x86/lib/crt1.o
                [!provide]                        PROVIDE (__rel_iplt_start, .)
 *(.rel.iplt)
 .rel.iplt      0x0000000008049280        0x0 C:\ProgramData\dSPACE\071346ea-bffa-4465-9551-2e48edf35320\Compiler\QNX650_520\target\qnx6/x86/lib/crt1.o
                [!provide]                        PROVIDE (__rel_iplt_end, .)
 .rel.eh_frame  0x0000000008049280        0x0 C:\ProgramData\dSPACE\071346ea-bffa-4465-9551-2e48edf35320\Compiler\QNX650_520\target\qnx6/x86/lib/crt1.o

.rel.plt        0x0000000008049280      0x248
 *(.rel.plt)
 .rel.plt       0x0000000008049280      0x248 C:\ProgramData\dSPACE\071346ea-bffa-4465-9551-2e48edf35320\Compiler\QNX650_520\target\qnx6/x86/lib/crt1.o

.init           0x00000000080494c8        0xd
 *(SORT(.init))
 .init          0x00000000080494c8        0x0 C:\ProgramData\dSPACE\071346ea-bffa-4465-9551-2e48edf35320\Compiler\QNX650_520\target\qnx6/x86/lib/crti.o
                0x00000000080494c8                _init
 .init          0x00000000080494c8        0x5 c:/programdata/dspace/071346ea-bffa-4465-9551-2e48edf35320/compiler/qnx650_520/host/win32/x86/usr/bin/../lib/gcc/i486-pc-nto-qnx6.5.0/5.2.0/crtbegin.o
 .init          0x00000000080494cd        0x5 c:/programdata/dspace/071346ea-bffa-4465-9551-2e48edf35320/compiler/qnx650_520/host/win32/x86/usr/bin/../lib/gcc/i486-pc-nto-qnx6.5.0/5.2.0/crtend.o
 .init          0x00000000080494d2        0x3 C:\ProgramData\dSPACE\071346ea-bffa-4465-9551-2e48edf35320\Compiler\QNX650_520\target\qnx6/x86/lib/crtn.o

.plt            0x00000000080494e0      0x4a0
 *(.plt)
 .plt           0x00000000080494e0      0x4a0 C:\ProgramData\dSPACE\071346ea-bffa-4465-9551-2e48edf35320\Compiler\QNX650_520\target\qnx6/x86/lib/crt1.o
                0x00000000080494f0                _ZN7DsCTask10daqServiceEj
                0x0000000008049500                __register_frame_info
                0x0000000008049510                _Z18dsrtt_set_rtt_taskP7DsCTask
                0x0000000008049520                _ZN14DsCApplication15createErrorListEv
                0x0000000008049530                calloc
                0x0000000008049540                _Znaj
                0x0000000008049550                _ZN7DsCTask11bindTriggerER16DsCErrorListPoolP8DsCTimer
                0x0000000008049560                memcpy
                0x0000000008049570                realloc
                0x0000000008049580                _ZN14DsCApplicationC2ER16DsCErrorListPool
                0x0000000008049590                dsrtt_mp_register_config
                0x00000000080495a0                _ZN12DsCFcnModule12updateInputsEv
                0x00000000080495b0                _ZN7DsCTaskC2ER16DsCErrorListPoolP14DsCApplicationPKcjjjjjjjPS_j
                0x00000000080495c0                __wrap_printf
                0x00000000080495d0                __cxa_finalize
                0x00000000080495e0                _ZN14DsCApplicationD2Ev
                0x00000000080495f0                malloc
                0x0000000008049600                _ZdlPv
                0x0000000008049610                _init_array
                0x0000000008049620                strncmp
                0x0000000008049630                _ZN12DsCFcnModule13updateOutputsEv
                0x0000000008049640                _ZN23DsNApplicationInterface16registerResourceEPKcPv
                0x0000000008049650                strlen
                0x0000000008049660                _ZN23DsNApplicationInterface12registerApplEPv
                0x0000000008049670                dsrtt_script_service_post_computation
                0x0000000008049680                _ZN11DsCMpSender4sendEv
                0x0000000008049690                snprintf
                0x00000000080496a0                atexit
                0x00000000080496b0                asin
                0x00000000080496c0                _ZN7DsCTask14getCallCounterEv
                0x00000000080496d0                __gxx_personality_v0
                0x00000000080496e0                _Unwind_Resume
                0x00000000080496f0                memmove
                0x0000000008049700                vsprintf
                0x0000000008049710                _ZN7DsCTask18setSimTimeVariableEPd
                0x0000000008049720                vprintf
                0x0000000008049730                _init_libc
                0x0000000008049740                _ZN14DsCApplication12setSlowStartER16DsCErrorListPooldd
                0x0000000008049750                _ZN14DsCApplication4stopEv
                0x0000000008049760                _ZN7DsCTaskD2Ev
                0x0000000008049770                _ZN13DsCMpReceiver6createER16DsCErrorListPoolP14DsCApplicationPKcjjjj
                0x0000000008049780                strncpy
                0x0000000008049790                _ZN7DsCTask17getOverrunCounterEv
                0x00000000080497a0                dsrtt_script_service_pre_computation
                0x00000000080497b0                _ZN7DsCTask28setDeadlineViolationFunctionER16DsCErrorListPoolPFvS1_PS_E
                0x00000000080497c0                _ZN11DsCMpSender9getBufferEv
                0x00000000080497d0                memset
                0x00000000080497e0                qsort
                0x00000000080497f0                memcmp
                0x0000000008049800                __wrap_exit
                0x0000000008049810                acos
                0x0000000008049820                _fini_array
                0x0000000008049830                _Log
                0x0000000008049840                _preinit_array
                0x0000000008049850                exp
                0x0000000008049860                _ZN7DsCTask14getDescriptionEv
                0x0000000008049870                _ZN14DsCApplication9terminateEv
                0x0000000008049880                _ZN12DsCFcnModule6createER16DsCErrorListPoolP14DsCApplicationPKc
                0x0000000008049890                strcmp
                0x00000000080498a0                free
                0x00000000080498b0                _ZN7DsCTask16setTaskVariablesER16DsCErrorListPoolP25tagDsSKernelTaskVariables
                0x00000000080498c0                dsrtt_set_step_size
                0x00000000080498d0                _ZN8DsCTimer6createER16DsCErrorListPoolddPKc
                0x00000000080498e0                _ZN11DsCMpSender6createER16DsCErrorListPoolP14DsCApplicationPKcjjjj
                0x00000000080498f0                _ZN14DsCApplication18getDiagnosticBlockER16DsCErrorListPool
                0x0000000008049900                _Znwj
                0x0000000008049910                _ZN14DsCApplication12errorMessageEhjjPKcjjS1_S1_z
                0x0000000008049920                _ZN13DsCMpReceiver7receiveEPPv
                0x0000000008049930                _ZN7DsCTask13bindFcnModuleER16DsCErrorListPoolP12DsCFcnModule
                0x0000000008049940                _ZN14DsCApplication25getFailureSimulationBlockER16DsCErrorListPool
                0x0000000008049950                main
                0x0000000008049960                strcpy
                0x0000000008049970                __deregister_frame_info

.iplt           0x0000000008049980        0x0
 *(.iplt)
 .iplt          0x0000000008049980        0x0 C:\ProgramData\dSPACE\071346ea-bffa-4465-9551-2e48edf35320\Compiler\QNX650_520\target\qnx6/x86/lib/crt1.o

.text           0x0000000008049980    0x95424
                0x0000000008049980                _btext = .
 *(.text.unlikely .text.*_unlikely .text.unlikely.*)
 .text.unlikely
                0x0000000008049980        0x0 c:/programdata/dspace/071346ea-bffa-4465-9551-2e48edf35320/compiler/qnx650_520/host/win32/x86/usr/bin/../lib/gcc/i486-pc-nto-qnx6.5.0/5.2.0/crtbegin.o
 .text.unlikely
                0x0000000008049980        0x0 mdladapter_mdlfunctions.o86
 .text.unlikely
                0x0000000008049980        0x0 mdlCode_ap.o86
 .text.unlikely
                0x0000000008049980        0x0 dssimengine_accesspoint.o86
 .text.unlikely
                0x0000000008049980        0x0 dssimengine_api.o86
 .text.unlikely
                0x0000000008049980        0x0 dssimengine_main.o86
 .text.unlikely
                0x0000000008049980        0x0 rtosal_task.o86
 .text.unlikely
                0x0000000008049980        0x0 rtosal_taskap.o86
 .text.unlikely
                0x0000000008049980        0x0 rtosal_simengineap.o86
 .text.unlikely
                0x0000000008049980        0x0 IOCode_Data.o86
 .text.unlikely
                0x0000000008049980        0x0 rtosal_interapplcom.o86
 .text.unlikely
                0x0000000008049980        0x0 STLA_MECHANICAL.a(STLA_MECHANICAL_dsrtmdlfcn.lo86)
 .text.unlikely
                0x0000000008049980        0x0 STLA_MECHANICAL.a(STLA_MECHANICAL_dsrttf.lo86)
 .text.unlikely
                0x0000000008049980        0x0 STLA_MECHANICAL.a(STLA_MECHANICAL.lo86)
 .text.unlikely
                0x0000000008049980        0x0 Punch_mechanical_B_sample_v3_6_cal_v2_C_rtwlib.lib(Punch_mechanical_B_sample_v3_6_cal_v2_C.lo86)
 .text.unlikely
                0x0000000008049980        0x0 Punch_mechanical_B_sample_v3_6_cal_v2_C_rtwlib.lib(Punch_mechanical_B_sample_v3_6_cal_v2_C_9a4b384b_1_gateway.lo86)
 .text.unlikely
                0x0000000008049980        0x0 Punch_mechanical_B_sample_v3_6_cal_v2_C_rtwlib.lib(Punch_mechanical_B_sample_v3_6_cal_v2_C_9a4b384b_1.lo86)
 .text.unlikely
                0x0000000008049980        0x0 Punch_mechanical_B_sample_v3_6_cal_v2_C_rtwlib.lib(Punch_mechanical_B_sample_v3_6_cal_v2_C_9a4b384b_1_ds.lo86)
 .text.unlikely
                0x0000000008049980        0x0 Punch_mechanical_B_sample_v3_6_cal_v2_C_rtwlib.lib(Punch_mechanical_B_sample_v3_6_cal_v2_C_9a4b384b_1_ds_cache_i.lo86)
 .text.unlikely
                0x0000000008049980        0x0 Punch_mechanical_B_sample_v3_6_cal_v2_C_rtwlib.lib(Punch_mechanical_B_sample_v3_6_cal_v2_C_9a4b384b_1_ds_assert.lo86)
 .text.unlikely
                0x0000000008049980        0x0 Punch_mechanical_B_sample_v3_6_cal_v2_C_rtwlib.lib(Punch_mechanical_B_sample_v3_6_cal_v2_C_9a4b384b_1_ds_q1.lo86)
 .text.unlikely
                0x0000000008049980        0x0 Punch_mechanical_B_sample_v3_6_cal_v2_C_rtwlib.lib(Punch_mechanical_B_sample_v3_6_cal_v2_C_9a4b384b_1_ds_dxf_p.lo86)
 .text.unlikely
                0x0000000008049980        0x0 Punch_mechanical_B_sample_v3_6_cal_v2_C_rtwlib.lib(Punch_mechanical_B_sample_v3_6_cal_v2_C_9a4b384b_1_ds_dxm_p.lo86)
 .text.unlikely
                0x0000000008049980        0x0 Punch_mechanical_B_sample_v3_6_cal_v2_C_rtwlib.lib(Punch_mechanical_B_sample_v3_6_cal_v2_C_9a4b384b_1_ds_dxdelt_p.lo86)
 .text.unlikely
                0x0000000008049980        0x0 Punch_mechanical_B_sample_v3_6_cal_v2_C_rtwlib.lib(Punch_mechanical_B_sample_v3_6_cal_v2_C_9a4b384b_1_ds_f.lo86)
 .text.unlikely
                0x0000000008049980        0x0 Punch_mechanical_B_sample_v3_6_cal_v2_C_rtwlib.lib(Punch_mechanical_B_sample_v3_6_cal_v2_C_9a4b384b_1_ds_update_i.lo86)
 .text.unlikely
                0x0000000008049980        0x0 Punch_mechanical_B_sample_v3_6_cal_v2_C_rtwlib.lib(Punch_mechanical_B_sample_v3_6_cal_v2_C_9a4b384b_1_ds_qx_p.lo86)
 .text.unlikely
                0x0000000008049980        0x0 Punch_mechanical_B_sample_v3_6_cal_v2_C_rtwlib.lib(Punch_mechanical_B_sample_v3_6_cal_v2_C_9a4b384b_1_ds_dxf.lo86)
 .text.unlikely
                0x0000000008049980        0x0 Punch_mechanical_B_sample_v3_6_cal_v2_C_rtwlib.lib(Punch_mechanical_B_sample_v3_6_cal_v2_C_9a4b384b_1_ds_duf.lo86)
 .text.unlikely
                0x0000000008049980        0x0 Punch_mechanical_B_sample_v3_6_cal_v2_C_rtwlib.lib(Punch_mechanical_B_sample_v3_6_cal_v2_C_9a4b384b_1_ds_obs_act.lo86)
 .text.unlikely
                0x0000000008049980        0x0 Punch_mechanical_B_sample_v3_6_cal_v2_C_rtwlib.lib(Punch_mechanical_B_sample_v3_6_cal_v2_C_9a4b384b_1_ds_a.lo86)
 .text.unlikely
                0x0000000008049980        0x0 Punch_mechanical_B_sample_v3_6_cal_v2_C_rtwlib.lib(Punch_mechanical_B_sample_v3_6_cal_v2_C_9a4b384b_1_ds_obs_exp.lo86)
 .text.unlikely
                0x0000000008049980        0x0 Punch_mechanical_B_sample_v3_6_cal_v2_C_rtwlib.lib(Punch_mechanical_B_sample_v3_6_cal_v2_C_9a4b384b_1_ds_a_p.lo86)
 .text.unlikely
                0x0000000008049980        0x0 Punch_mechanical_B_sample_v3_6_cal_v2_C_rtwlib.lib(Punch_mechanical_B_sample_v3_6_cal_v2_C_9a4b384b_1_ds_tdxf_p.lo86)
 .text.unlikely
                0x0000000008049980        0x0 Punch_mechanical_B_sample_v3_6_cal_v2_C_rtwlib.lib(Punch_mechanical_B_sample_v3_6_cal_v2_C_9a4b384b_1_ds_qx.lo86)
 .text.unlikely
                0x0000000008049980        0x0 Punch_mechanical_B_sample_v3_6_cal_v2_C_rtwlib.lib(Punch_mechanical_B_sample_v3_6_cal_v2_C_9a4b384b_1_ds_vmf.lo86)
 .text.unlikely
                0x0000000008049980        0x0 Punch_mechanical_B_sample_v3_6_cal_v2_C_rtwlib.lib(Punch_mechanical_B_sample_v3_6_cal_v2_C_9a4b384b_1_ds_slf.lo86)
 .text.unlikely
                0x0000000008049980        0x0 Punch_mechanical_B_sample_v3_6_cal_v2_C_rtwlib.lib(Punch_mechanical_B_sample_v3_6_cal_v2_C_9a4b384b_1_ds_ic.lo86)
 .text.unlikely
                0x0000000008049980        0x0 Punch_mechanical_B_sample_v3_6_cal_v2_C_rtwlib.lib(Punch_mechanical_B_sample_v3_6_cal_v2_C_9a4b384b_1_ds_dxicr_p.lo86)
 .text.unlikely
                0x0000000008049980        0x0 Punch_mechanical_B_sample_v3_6_cal_v2_C_rtwlib.lib(Punch_mechanical_B_sample_v3_6_cal_v2_C_9a4b384b_1_ds_log.lo86)
 .text.unlikely
                0x0000000008049980        0x0 Punch_mechanical_B_sample_v3_6_cal_v2_C_rtwlib.lib(Punch_mechanical_B_sample_v3_6_cal_v2_C_9a4b384b_1_ds_m.lo86)
 .text.unlikely
                0x0000000008049980        0x0 Punch_mechanical_B_sample_v3_6_cal_v2_C_rtwlib.lib(Punch_mechanical_B_sample_v3_6_cal_v2_C_9a4b384b_1_ds_m_p.lo86)
 .text.unlikely
                0x0000000008049980        0x0 Punch_mechanical_B_sample_v3_6_cal_v2_C_rtwlib.lib(Punch_mechanical_B_sample_v3_6_cal_v2_C_9a4b384b_1_ds_vmm.lo86)
 .text.unlikely
                0x0000000008049980        0x0 Punch_mechanical_B_sample_v3_6_cal_v2_C_rtwlib.lib(Punch_mechanical_B_sample_v3_6_cal_v2_C_9a4b384b_1_ds_mode.lo86)
 .text.unlikely
                0x0000000008049980        0x0 Punch_mechanical_B_sample_v3_6_cal_v2_C_rtwlib.lib(Punch_mechanical_B_sample_v3_6_cal_v2_C_9a4b384b_1_ds_obs_all.lo86)
 .text.unlikely
                0x0000000008049980        0x0 Punch_mechanical_B_sample_v3_6_cal_v2_C_rtwlib.lib(Punch_mechanical_B_sample_v3_6_cal_v2_C_9a4b384b_1_ds_q1_p.lo86)
 .text.unlikely
                0x0000000008049980        0x0 Punch_mechanical_B_sample_v3_6_cal_v2_C_rtwlib.lib(Punch_mechanical_B_sample_v3_6_cal_v2_C_9a4b384b_1_ds_var_tol.lo86)
 .text.unlikely
                0x0000000008049980        0x0 Punch_mechanical_B_sample_v3_6_cal_v2_C_rtwlib.lib(Punch_mechanical_B_sample_v3_6_cal_v2_C_9a4b384b_1_ds_eq_tol.lo86)
 .text.unlikely
                0x0000000008049980        0x0 Punch_mechanical_B_sample_v3_6_cal_v2_C_rtwlib.lib(Punch_mechanical_B_sample_v3_6_cal_v2_C_9a4b384b_1_ds_lv.lo86)
 .text.unlikely
                0x0000000008049980        0x0 Punch_mechanical_B_sample_v3_6_cal_v2_C_rtwlib.lib(Punch_mechanical_B_sample_v3_6_cal_v2_C_9a4b384b_1_ds_slv.lo86)
 .text.unlikely
                0x0000000008049980        0x0 Punch_mechanical_B_sample_v3_6_cal_v2_C_rtwlib.lib(Punch_mechanical_B_sample_v3_6_cal_v2_C_9a4b384b_1_ds_y.lo86)
 .text.unlikely
                0x0000000008049980        0x0 Punch_mechanical_B_sample_v3_6_cal_v2_C_rtwlib.lib(Punch_mechanical_B_sample_v3_6_cal_v2_C_9a4b384b_1_ds_dxy.lo86)
 .text.unlikely
                0x0000000008049980        0x0 Punch_mechanical_B_sample_v3_6_cal_v2_C_rtwlib.lib(Punch_mechanical_B_sample_v3_6_cal_v2_C_9a4b384b_1_ds_dxy_p.lo86)
 .text.unlikely
                0x0000000008049980        0x0 Punch_mechanical_B_sample_v3_6_cal_v2_C_rtwlib.lib(Punch_mechanical_B_sample_v3_6_cal_v2_C_9a4b384b_1_ds_mdxy_p.lo86)
 .text.unlikely
                0x0000000008049980        0x0 Punch_mechanical_B_sample_v3_6_cal_v2_C_rtwlib.lib(Punch_mechanical_B_sample_v3_6_cal_v2_C_9a4b384b_1_ds_tdxy_p.lo86)
 .text.unlikely
                0x0000000008049980        0x0 Punch_mechanical_B_sample_v3_6_cal_v2_C_rtwlib.lib(Punch_mechanical_B_sample_v3_6_cal_v2_C_9a4b384b_1_ds_zc.lo86)
 .text.unlikely
                0x0000000008049980        0x0 rtwshared.lib(look1_pbinlcapw.lo86)
 .text.unlikely
                0x0000000008049980        0x0 rtwshared.lib(look2_pbinlcapw.lo86)
 .text.unlikely
                0x0000000008049980        0x0 rtwshared.lib(rt_backsubrr_dbl.lo86)
 .text.unlikely
                0x0000000008049980        0x0 rtwshared.lib(rt_forwardsubrr_dbl.lo86)
 .text.unlikely
                0x0000000008049980        0x0 rtwshared.lib(rt_lu_real.lo86)
 .text.unlikely
                0x0000000008049980        0x0 rtwshared.lib(rt_nonfinite.lo86)
 .text.unlikely
                0x0000000008049980        0x0 rtwshared.lib(rtGetInf.lo86)
 .text.unlikely
                0x0000000008049980        0x0 rtwshared.lib(rtGetNaN.lo86)
 .text.unlikely
                0x0000000008049980        0x0 ssc_sli_r2017b_dsx86_32_2.a(ssc_sli_0bd269e6.lo86)
 .text.unlikely
                0x0000000008049980        0x0 ssc_sli_r2017b_dsx86_32_2.a(ssc_sli_5a0cb974.lo86)
 .text.unlikely
                0x0000000008049980        0x0 ssc_sli_r2017b_dsx86_32_2.a(ssc_sli_c7dda239.lo86)
 .text.unlikely
                0x0000000008049980        0x0 ssc_sli_r2017b_dsx86_32_2.a(ssc_sli_fbdf29da.lo86)
 .text.unlikely
                0x0000000008049980        0x0 ssc_sli_r2017b_dsx86_32_2.a(ssc_sli_fa0ce53e.lo86)
 .text.unlikely
                0x0000000008049980        0x0 ssc_sli_r2017b_dsx86_32_2.a(ssc_sli_550a4805.lo86)
 .text.unlikely
                0x0000000008049980        0x0 ssc_sli_r2017b_dsx86_32_2.a(ssc_sli_89d0f30a.lo86)
 .text.unlikely
                0x0000000008049980        0x0 ssc_sli_r2017b_dsx86_32_2.a(ssc_sli_9c030181.lo86)
 .text.unlikely
                0x0000000008049980        0x0 ssc_sli_r2017b_dsx86_32_2.a(ssc_sli_dcd66f69.lo86)
 .text.unlikely
                0x0000000008049980        0x0 ssc_sli_r2017b_dsx86_32_2.a(ssc_sli_eb0a5702.lo86)
 .text.unlikely
                0x0000000008049980        0x0 ssc_sli_r2017b_dsx86_32_2.a(ssc_sli_0763c151.lo86)
 .text.unlikely
                0x0000000008049980        0x0 ssc_sli_r2017b_dsx86_32_2.a(ssc_sli_360cfd63.lo86)
 .text.unlikely
                0x0000000008049980        0x0 ssc_sli_r2017b_dsx86_32_2.a(ssc_sli_43618287.lo86)
 .text.unlikely
                0x0000000008049980        0x0 ssc_sli_r2017b_dsx86_32_2.a(ssc_sli_466b08dd.lo86)
 .text.unlikely
                0x0000000008049980        0x0 ssc_sli_r2017b_dsx86_32_2.a(ssc_sli_4e028390.lo86)
 .text.unlikely
                0x0000000008049980        0x0 ssc_sli_r2017b_dsx86_32_2.a(ssc_sli_51dbd3b5.lo86)
 .text.unlikely
                0x0000000008049980        0x0 ssc_sli_r2017b_dsx86_32_2.a(ssc_sli_77063d8b.lo86)
 .text.unlikely
                0x0000000008049980        0x0 ssc_sli_r2017b_dsx86_32_2.a(ssc_sli_7a618260.lo86)
 .text.unlikely
                0x0000000008049980        0x0 ssc_sli_r2017b_dsx86_32_2.a(ssc_sli_7f630b0f.lo86)
 .text.unlikely
                0x0000000008049980        0x0 ssc_sli_r2017b_dsx86_32_2.a(ssc_sli_8a64c4e2.lo86)
 .text.unlikely
                0x0000000008049980        0x0 ssc_core_r2017b_dsx86_32_2.a(ssc_core_05058dd9.lo86)
 .text.unlikely
                0x0000000008049980        0x0 ssc_core_r2017b_dsx86_32_2.a(ssc_core_1c6b0332.lo86)
 .text.unlikely
                0x0000000008049980        0x0 ssc_core_r2017b_dsx86_32_2.a(ssc_core_2568b075.lo86)
 .text.unlikely
                0x0000000008049980        0x0 ssc_core_r2017b_dsx86_32_2.a(ssc_core_360a4baf.lo86)
 .text.unlikely
                0x0000000008049980        0x0 ssc_core_r2017b_dsx86_32_2.a(ssc_core_4965213d.lo86)
 .text.unlikely
                0x0000000008049980        0x0 ssc_core_r2017b_dsx86_32_2.a(ssc_core_67d1f118.lo86)
 .text.unlikely
                0x0000000008049980        0x0 ssc_core_r2017b_dsx86_32_2.a(ssc_core_6b6b89d2.lo86)
 .text.unlikely
                0x0000000008049980        0x0 ssc_core_r2017b_dsx86_32_2.a(ssc_core_6dd833f3.lo86)
 .text.unlikely
                0x0000000008049980        0x0 ssc_core_r2017b_dsx86_32_2.a(ssc_core_8569edc5.lo86)
 .text.unlikely
                0x0000000008049980        0x0 ssc_core_r2017b_dsx86_32_2.a(ssc_core_8a6471dc.lo86)
 .text.unlikely
                0x0000000008049980        0x0 ssc_core_r2017b_dsx86_32_2.a(ssc_core_97d767fe.lo86)
 .text.unlikely
                0x0000000008049980        0x0 ssc_core_r2017b_dsx86_32_2.a(ssc_core_a4d4c45e.lo86)
 .text.unlikely
                0x0000000008049980        0x0 ssc_core_r2017b_dsx86_32_2.a(ssc_core_abd5e7b4.lo86)
 .text.unlikely
                0x0000000008049980        0x0 ssc_core_r2017b_dsx86_32_2.a(ssc_core_acb64294.lo86)
 .text.unlikely
                0x0000000008049980        0x0 ssc_core_r2017b_dsx86_32_2.a(ssc_core_acb6462e.lo86)
 .text.unlikely
                0x0000000008049980        0x0 ssc_core_r2017b_dsx86_32_2.a(ssc_core_b1038cbb.lo86)
 .text.unlikely
                0x0000000008049980        0x0 ssc_core_r2017b_dsx86_32_2.a(ssc_core_b10e34f4.lo86)
 .text.unlikely
                0x0000000008049980        0x0 ssc_core_r2017b_dsx86_32_2.a(ssc_core_b2b3b239.lo86)
 .text.unlikely
                0x0000000008049980        0x0 ssc_core_r2017b_dsx86_32_2.a(ssc_core_b402b40d.lo86)
 .text.unlikely
                0x0000000008049980        0x0 ssc_core_r2017b_dsx86_32_2.a(ssc_core_bb0b2992.lo86)
 .text.unlikely
                0x0000000008049980        0x0 ssc_core_r2017b_dsx86_32_2.a(ssc_core_c3003040.lo86)
 .text.unlikely
                0x0000000008049980        0x0 ssc_core_r2017b_dsx86_32_2.a(ssc_core_c5b63cb2.lo86)
 .text.unlikely
                0x0000000008049980        0x0 ssc_core_r2017b_dsx86_32_2.a(ssc_core_c607b660.lo86)
 .text.unlikely
                0x0000000008049980        0x0 ssc_core_r2017b_dsx86_32_2.a(ssc_core_c8d83e88.lo86)
 .text.unlikely
                0x0000000008049980        0x0 ssc_core_r2017b_dsx86_32_2.a(ssc_core_cab615c8.lo86)
 .text.unlikely
                0x0000000008049980        0x0 ssc_core_r2017b_dsx86_32_2.a(ssc_core_cabdc251.lo86)
 .text.unlikely
                0x0000000008049980        0x0 ssc_core_r2017b_dsx86_32_2.a(ssc_core_cc067f58.lo86)
 .text.unlikely
                0x0000000008049980        0x0 ssc_core_r2017b_dsx86_32_2.a(ssc_core_d06d763c.lo86)
 .text.unlikely
                0x0000000008049980        0x0 ssc_core_r2017b_dsx86_32_2.a(ssc_core_d3d34d7c.lo86)
 .text.unlikely
                0x0000000008049980        0x0 ssc_core_r2017b_dsx86_32_2.a(ssc_core_d807fa59.lo86)
 .text.unlikely
                0x0000000008049980        0x0 ssc_core_r2017b_dsx86_32_2.a(ssc_core_d9d13dac.lo86)
 .text.unlikely
                0x0000000008049980        0x0 ssc_core_r2017b_dsx86_32_2.a(ssc_core_deb7fd8d.lo86)
 .text.unlikely
                0x0000000008049980        0x0 ssc_core_r2017b_dsx86_32_2.a(ssc_core_e0d0866d.lo86)
 .text.unlikely
                0x0000000008049980        0x0 ssc_core_r2017b_dsx86_32_2.a(ssc_core_e2b61d72.lo86)
 .text.unlikely
                0x0000000008049980        0x0 ssc_core_r2017b_dsx86_32_2.a(ssc_core_ee01086d.lo86)
 .text.unlikely
                0x0000000008049980        0x0 ssc_core_r2017b_dsx86_32_2.a(ssc_core_ee0f0141.lo86)
 .text.unlikely
                0x0000000008049980        0x0 ssc_core_r2017b_dsx86_32_2.a(ssc_core_f9b6dbed.lo86)
 .text.unlikely
                0x0000000008049980        0x0 ssc_core_r2017b_dsx86_32_2.a(ssc_core_fa09e9e6.lo86)
 .text.unlikely
                0x0000000008049980        0x0 ssc_core_r2017b_dsx86_32_2.a(ssc_core_fbd34e62.lo86)
 .text.unlikely
                0x0000000008049980        0x0 ssc_core_r2017b_dsx86_32_2.a(ssc_core_ff06d9a4.lo86)
 .text.unlikely
                0x0000000008049980        0x0 ssc_core_r2017b_dsx86_32_2.a(ssc_core_01dcc633.lo86)
 .text.unlikely
                0x0000000008049980        0x0 ssc_core_r2017b_dsx86_32_2.a(ssc_core_06ba68a6.lo86)
 .text.unlikely
                0x0000000008049980        0x0 ssc_core_r2017b_dsx86_32_2.a(ssc_core_0f019bd9.lo86)
 .text.unlikely
                0x0000000008049980        0x0 ssc_core_r2017b_dsx86_32_2.a(ssc_core_0f0420a6.lo86)
 .text.unlikely
                0x0000000008049980        0x0 ssc_core_r2017b_dsx86_32_2.a(ssc_core_1b0cafd5.lo86)
 .text.unlikely
                0x0000000008049980        0x0 ssc_core_r2017b_dsx86_32_2.a(ssc_core_3169e4b7.lo86)
 .text.unlikely
                0x0000000008049980        0x0 ssc_core_r2017b_dsx86_32_2.a(ssc_core_37d4ea84.lo86)
 .text.unlikely
                0x0000000008049980        0x0 ssc_core_r2017b_dsx86_32_2.a(ssc_core_40dfdbdc.lo86)
 .text.unlikely
                0x0000000008049980        0x0 ssc_core_r2017b_dsx86_32_2.a(ssc_core_41017299.lo86)
 .text.unlikely
                0x0000000008049980        0x0 ssc_core_r2017b_dsx86_32_2.a(ssc_core_4666b45b.lo86)
 .text.unlikely
                0x0000000008049980        0x0 ssc_core_r2017b_dsx86_32_2.a(ssc_core_48b1386a.lo86)
 .text.unlikely
                0x0000000008049980        0x0 ssc_core_r2017b_dsx86_32_2.a(ssc_core_4ad9135b.lo86)
 .text.unlikely
                0x0000000008049980        0x0 ssc_core_r2017b_dsx86_32_2.a(ssc_core_4db6bd68.lo86)
 .text.unlikely
                0x0000000008049980        0x0 ssc_core_r2017b_dsx86_32_2.a(ssc_core_4db86fcc.lo86)
 .text.unlikely
                0x0000000008049980        0x0 ssc_core_r2017b_dsx86_32_2.a(ssc_core_4e03e39d.lo86)
 .text.unlikely
                0x0000000008049980        0x0 ssc_core_r2017b_dsx86_32_2.a(ssc_core_54d55ae9.lo86)
 .text.unlikely
                0x0000000008049980        0x0 ssc_core_r2017b_dsx86_32_2.a(ssc_core_56b1a2bf.lo86)
 .text.unlikely
                0x0000000008049980        0x0 ssc_core_r2017b_dsx86_32_2.a(ssc_core_59b034b8.lo86)
 .text.unlikely
                0x0000000008049980        0x0 ssc_core_r2017b_dsx86_32_2.a(ssc_core_5d6ba758.lo86)
 .text.unlikely
                0x0000000008049980        0x0 ssc_core_r2017b_dsx86_32_2.a(ssc_core_68da074b.lo86)
 .text.unlikely
                0x0000000008049980        0x0 ssc_core_r2017b_dsx86_32_2.a(ssc_core_73d9c2b7.lo86)
 .text.unlikely
                0x0000000008049980        0x0 ssc_core_r2017b_dsx86_32_2.a(ssc_core_79dd08ab.lo86)
 .text.unlikely
                0x0000000008049980        0x0 ssc_core_r2017b_dsx86_32_2.a(ssc_core_7a613edb.lo86)
 .text.unlikely
                0x0000000008049980        0x0 ssc_core_r2017b_dsx86_32_2.a(ssc_core_83db8762.lo86)
 .text.unlikely
                0x0000000008049980        0x0 ssc_core_r2017b_dsx86_32_2.a(ssc_core_856738f2.lo86)
 .text.unlikely
                0x0000000008049980        0x0 ssc_core_r2017b_dsx86_32_2.a(ssc_core_8d0064b8.lo86)
 .text.unlikely
                0x0000000008049980        0x0 ssc_core_r2017b_dsx86_32_2.a(ssc_core_96061071.lo86)
 .text.unlikely
                0x0000000008049980        0x0 ssc_core_r2017b_dsx86_32_2.a(ssc_core_9c016445.lo86)
 .text.unlikely
                0x0000000008049980        0x0 ssc_core_r2017b_dsx86_32_2.a(ssc_core_9dd110ad.lo86)
 .text.unlikely
                0x0000000008049980        0x0 ssc_core_r2017b_dsx86_32_2.a(ssc_core_9fb0e229.lo86)
 .text.unlikely
                0x0000000008049980        0x0 ssc_core_r2017b_dsx86_32_2.a(ssc_core_9fb25b4f.lo86)
 .text.unlikely
                0x0000000008049980        0x0 ssc_core_r2017b_dsx86_32_2.a(ssc_core_a1d393be.lo86)
 .text.unlikely
                0x0000000008049980        0x0 ssc_core_r2017b_dsx86_32_2.a(ssc_core_a6b78ccc.lo86)
 .text.unlikely
                0x0000000008049980        0x0 ssc_core_r2017b_dsx86_32_2.a(ssc_core_a867d880.lo86)
 .text.unlikely
                0x0000000008049980        0x0 ssc_core_r2017b_dsx86_32_2.a(ssc_core_a9bf1ff2.lo86)
 .text.unlikely
                0x0000000008049980        0x0 ssc_core_r2017b_dsx86_32_2.a(ssc_core_abd05c18.lo86)
 .text.unlikely
                0x0000000008049980        0x0 ssc_core_r2017b_dsx86_32_2.a(ssc_core_b3671372.lo86)
 .text.unlikely
                0x0000000008049980        0x0 ssc_core_r2017b_dsx86_32_2.a(ssc_core_b7b88213.lo86)
 .text.unlikely
                0x0000000008049980        0x0 ssc_core_r2017b_dsx86_32_2.a(ssc_core_b96ebc21.lo86)
 .text.unlikely
                0x0000000008049980        0x0 ssc_core_r2017b_dsx86_32_2.a(ssc_core_c5b050d7.lo86)
 .text.unlikely
                0x0000000008049980        0x0 ssc_core_r2017b_dsx86_32_2.a(ssc_core_d70a6a09.lo86)
 .text.unlikely
                0x0000000008049980        0x0 ssc_core_r2017b_dsx86_32_2.a(ssc_core_dcda6edd.lo86)
 .text.unlikely
                0x0000000008049980        0x0 ssc_core_r2017b_dsx86_32_2.a(ssc_core_09b5fa6e.lo86)
 .text.unlikely
                0x0000000008049980        0x0 ssc_core_r2017b_dsx86_32_2.a(ssc_core_0bd666aa.lo86)
 .text.unlikely
                0x0000000008049980        0x0 ssc_core_r2017b_dsx86_32_2.a(ssc_core_76d825be.lo86)
 .text.unlikely
                0x0000000008049980        0x0 ssc_core_r2017b_dsx86_32_2.a(ssc_core_a4da1d0a.lo86)
 .text.unlikely
                0x0000000008049980        0x0 ssc_core_r2017b_dsx86_32_2.a(ssc_core_bc648043.lo86)
 .text.unlikely
                0x0000000008049980        0x0 ssc_core_r2017b_dsx86_32_2.a(ssc_core_ce6a84bb.lo86)
 .text.unlikely
                0x0000000008049980        0x0 ne_r2017b_dsx86_32_2.a(ne_59b4e14a.lo86)
 .text.unlikely
                0x0000000008049980        0x0 mc_r2017b_dsx86_32_2.a(mc_0bd30dee.lo86)
 .text.unlikely
                0x0000000008049980        0x0 mc_r2017b_dsx86_32_2.a(mc_110e6c6c.lo86)
 .text.unlikely
                0x0000000008049980        0x0 mc_r2017b_dsx86_32_2.a(mc_15d828ca.lo86)
 .text.unlikely
                0x0000000008049980        0x0 mc_r2017b_dsx86_32_2.a(mc_2565d6e0.lo86)
 .text.unlikely
                0x0000000008049980        0x0 mc_r2017b_dsx86_32_2.a(mc_47b8cebe.lo86)
 .text.unlikely
                0x0000000008049980        0x0 mc_r2017b_dsx86_32_2.a(mc_4b0301c6.lo86)
 .text.unlikely
                0x0000000008049980        0x0 mc_r2017b_dsx86_32_2.a(mc_52623861.lo86)
 .text.unlikely
                0x0000000008049980        0x0 mc_r2017b_dsx86_32_2.a(mc_53b1fc84.lo86)
 .text.unlikely
                0x0000000008049980        0x0 mc_r2017b_dsx86_32_2.a(mc_550847c3.lo86)
 .text.unlikely
                0x0000000008049980        0x0 mc_r2017b_dsx86_32_2.a(mc_5766048f.lo86)
 .text.unlikely
                0x0000000008049980        0x0 mc_r2017b_dsx86_32_2.a(mc_59b6e413.lo86)
 .text.unlikely
                0x0000000008049980        0x0 mc_r2017b_dsx86_32_2.a(mc_630dda0e.lo86)
 .text.unlikely
                0x0000000008049980        0x0 mc_r2017b_dsx86_32_2.a(mc_67da4f41.lo86)
 .text.unlikely
                0x0000000008049980        0x0 mc_r2017b_dsx86_32_2.a(mc_6b6d311a.lo86)
 .text.unlikely
                0x0000000008049980        0x0 mc_r2017b_dsx86_32_2.a(mc_7bbf41f0.lo86)
 .text.unlikely
                0x0000000008049980        0x0 mc_r2017b_dsx86_32_2.a(mc_7d0547c8.lo86)
 .text.unlikely
                0x0000000008049980        0x0 mc_r2017b_dsx86_32_2.a(mc_7d099de7.lo86)
 .text.unlikely
                0x0000000008049980        0x0 mc_r2017b_dsx86_32_2.a(mc_7eb21b39.lo86)
 .text.unlikely
                0x0000000008049980        0x0 mc_r2017b_dsx86_32_2.a(mc_81b5717e.lo86)
 .text.unlikely
                0x0000000008049980        0x0 mc_r2017b_dsx86_32_2.a(mc_89d597cf.lo86)
 .text.unlikely
                0x0000000008049980        0x0 mc_r2017b_dsx86_32_2.a(mc_90b6aa0a.lo86)
 .text.unlikely
                0x0000000008049980        0x0 mc_r2017b_dsx86_32_2.a(mc_9ab7d9b0.lo86)
 .text.unlikely
                0x0000000008049980        0x0 mc_r2017b_dsx86_32_2.a(mc_9b6c1529.lo86)
 .text.unlikely
                0x0000000008049980        0x0 mc_r2017b_dsx86_32_2.a(mc_a2647600.lo86)
 .text.unlikely
                0x0000000008049980        0x0 mc_r2017b_dsx86_32_2.a(mc_a26bab1a.lo86)
 .text.unlikely
                0x0000000008049980        0x0 mc_r2017b_dsx86_32_2.a(mc_a3b90582.lo86)
 .text.unlikely
                0x0000000008049980        0x0 mc_r2017b_dsx86_32_2.a(mc_a865d1dd.lo86)
 .text.unlikely
                0x0000000008049980        0x0 mc_r2017b_dsx86_32_2.a(mc_acb3fad7.lo86)
 .text.unlikely
                0x0000000008049980        0x0 mc_r2017b_dsx86_32_2.a(mc_af0cc4c9.lo86)
 .text.unlikely
                0x0000000008049980        0x0 mc_r2017b_dsx86_32_2.a(mc_b0de9cbc.lo86)
 .text.unlikely
                0x0000000008049980        0x0 mc_r2017b_dsx86_32_2.a(mc_b362c5eb.lo86)
 .text.unlikely
                0x0000000008049980        0x0 mc_r2017b_dsx86_32_2.a(mc_b7b03d44.lo86)
 .text.unlikely
                0x0000000008049980        0x0 mc_r2017b_dsx86_32_2.a(mc_b96a0bad.lo86)
 .text.unlikely
                0x0000000008049980        0x0 mc_r2017b_dsx86_32_2.a(mc_bb0520ee.lo86)
 .text.unlikely
                0x0000000008049980        0x0 mc_r2017b_dsx86_32_2.a(mc_bdbb9b78.lo86)
 .text.unlikely
                0x0000000008049980        0x0 mc_r2017b_dsx86_32_2.a(mc_c8d25d23.lo86)
 .text.unlikely
                0x0000000008049980        0x0 mc_r2017b_dsx86_32_2.a(mc_d20085b7.lo86)
 .text.unlikely
                0x0000000008049980        0x0 mc_r2017b_dsx86_32_2.a(mc_d9d38185.lo86)
 .text.unlikely
                0x0000000008049980        0x0 mc_r2017b_dsx86_32_2.a(mc_e7bc2f1a.lo86)
 .text.unlikely
                0x0000000008049980        0x0 mc_r2017b_dsx86_32_2.a(mc_e969ae87.lo86)
 .text.unlikely
                0x0000000008049980        0x0 mc_r2017b_dsx86_32_2.a(mc_edbf543c.lo86)
 .text.unlikely
                0x0000000008049980        0x0 mc_r2017b_dsx86_32_2.a(mc_efdea3a7.lo86)
 .text.unlikely
                0x0000000008049980        0x0 mc_r2017b_dsx86_32_2.a(mc_f3be157c.lo86)
 .text.unlikely
                0x0000000008049980        0x0 mc_r2017b_dsx86_32_2.a(mc_fcb15a9b.lo86)
 .text.unlikely
                0x0000000008049980        0x0 mc_r2017b_dsx86_32_2.a(mc_fd619d14.lo86)
 .text.unlikely
                0x0000000008049980        0x0 mc_r2017b_dsx86_32_2.a(mc_fd6341bb.lo86)
 .text.unlikely
                0x0000000008049980        0x0 mc_r2017b_dsx86_32_2.a(mc_03b98f6f.lo86)
 .text.unlikely
                0x0000000008049980        0x0 mc_r2017b_dsx86_32_2.a(mc_0d6fd085.lo86)
 .text.unlikely
                0x0000000008049980        0x0 mc_r2017b_dsx86_32_2.a(mc_0ed73c49.lo86)
 .text.unlikely
                0x0000000008049980        0x0 mc_r2017b_dsx86_32_2.a(mc_11086079.lo86)
 .text.unlikely
                0x0000000008049980        0x0 mc_r2017b_dsx86_32_2.a(mc_15d12d95.lo86)
 .text.unlikely
                0x0000000008049980        0x0 mc_r2017b_dsx86_32_2.a(mc_2cdc96b4.lo86)
 .text.unlikely
                0x0000000008049980        0x0 mc_r2017b_dsx86_32_2.a(mc_32dc008a.lo86)
 .text.unlikely
                0x0000000008049980        0x0 mc_r2017b_dsx86_32_2.a(mc_3e66abdf.lo86)
 .text.unlikely
                0x0000000008049980        0x0 mc_r2017b_dsx86_32_2.a(mc_51d4094e.lo86)
 .text.unlikely
                0x0000000008049980        0x0 mc_r2017b_dsx86_32_2.a(mc_52688a58.lo86)
 .text.unlikely
                0x0000000008049980        0x0 mc_r2017b_dsx86_32_2.a(mc_5d65cd86.lo86)
 .text.unlikely
                0x0000000008049980        0x0 mc_r2017b_dsx86_32_2.a(mc_67da200d.lo86)
 .text.unlikely
                0x0000000008049980        0x0 mc_r2017b_dsx86_32_2.a(mc_6fb1c336.lo86)
 .text.unlikely
                0x0000000008049980        0x0 mc_r2017b_dsx86_32_2.a(mc_7a613aec.lo86)
 .text.unlikely
                0x0000000008049980        0x0 mc_r2017b_dsx86_32_2.a(mc_7cd58f0b.lo86)
 .text.unlikely
                0x0000000008049980        0x0 mc_r2017b_dsx86_32_2.a(mc_7cdbe436.lo86)
 .text.unlikely
                0x0000000008049980        0x0 mc_r2017b_dsx86_32_2.a(mc_870ec75e.lo86)
 .text.unlikely
                0x0000000008049980        0x0 mc_r2017b_dsx86_32_2.a(mc_9b6376d1.lo86)
 .text.unlikely
                0x0000000008049980        0x0 mc_r2017b_dsx86_32_2.a(mc_dbbb14d2.lo86)
 .text.unlikely
                0x0000000008049980        0x0 mc_r2017b_dsx86_32_2.a(mc_dcdddfae.lo86)
 .text.unlikely
                0x0000000008049980        0x0 mc_r2017b_dsx86_32_2.a(mc_debb448f.lo86)
 .text.unlikely
                0x0000000008049980        0x0 mc_r2017b_dsx86_32_2.a(mc_220ba961.lo86)
 .text.unlikely
                0x0000000008049980        0x0 ex_r2017b_dsx86_32_2.a(ex_04d5441d.lo86)
 .text.unlikely
                0x0000000008049980        0x0 ex_r2017b_dsx86_32_2.a(ex_18b4440a.lo86)
 .text.unlikely
                0x0000000008049980        0x0 ex_r2017b_dsx86_32_2.a(ex_8a6fc761.lo86)
 .text.unlikely
                0x0000000008049980        0x0 pm_r2017b_dsx86_32_2.a(pm_09bc42e2.lo86)
 .text.unlikely
                0x0000000008049980        0x0 pm_r2017b_dsx86_32_2.a(pm_14098e54.lo86)
 .text.unlikely
                0x0000000008049980        0x0 pm_r2017b_dsx86_32_2.a(pm_26dc3230.lo86)
 .text.unlikely
                0x0000000008049980        0x0 pm_r2017b_dsx86_32_2.a(pm_4fd5f5b9.lo86)
 .text.unlikely
                0x0000000008049980        0x0 pm_r2017b_dsx86_32_2.a(pm_fed8c2c9.lo86)
 .text.unlikely
                0x0000000008049980        0x0 c:/programdata/dspace/071346ea-bffa-4465-9551-2e48edf35320/compiler/qnx650_520/host/win32/x86/usr/bin/../lib/gcc/i486-pc-nto-qnx6.5.0/5.2.0/crtend.o
 *(.text.exit .text.exit.*)
 *(.text.startup .text.startup.*)
 .text.startup  0x0000000008049980       0x31 dssimengine_main.o86
                0x0000000008049980                _Z32__registerApplDsCApplicationMainv
 *fill*         0x00000000080499b1        0xf 9090
 .text.startup  0x00000000080499c0       0x13 rtosal_simengineap.o86
                0x00000000080499c0                _Z21__registerRTTMPConfigv
 *fill*         0x00000000080499d3        0xd 9090
 .text.startup  0x00000000080499e0       0x16 IOCode_Data.o86
                0x00000000080499e0                _Z31__registerResourceg_ResourceMapv
 *(.text.hot .text.hot.*)
 *(.text .stub .text.* .gnu.linkonce.t.*)
 *fill*         0x00000000080499f6        0x2 9090
 .text          0x00000000080499f8       0x91 C:\ProgramData\dSPACE\071346ea-bffa-4465-9551-2e48edf35320\Compiler\QNX650_520\target\qnx6/x86/lib/crt1.o
                0x0000000008049a00                _start
 *fill*         0x0000000008049a89        0x3 9090
 .text          0x0000000008049a8c        0x0 C:\ProgramData\dSPACE\071346ea-bffa-4465-9551-2e48edf35320\Compiler\QNX650_520\target\qnx6/x86/lib/crti.o
 *fill*         0x0000000008049a8c        0x4 9090
 .text          0x0000000008049a90      0x1a5 c:/programdata/dspace/071346ea-bffa-4465-9551-2e48edf35320/compiler/qnx650_520/host/win32/x86/usr/bin/../lib/gcc/i486-pc-nto-qnx6.5.0/5.2.0/crtbegin.o
 .text.__x86.get_pc_thunk.dx
                0x0000000008049c35        0x4 c:/programdata/dspace/071346ea-bffa-4465-9551-2e48edf35320/compiler/qnx650_520/host/win32/x86/usr/bin/../lib/gcc/i486-pc-nto-qnx6.5.0/5.2.0/crtbegin.o
                0x0000000008049c35                __x86.get_pc_thunk.dx
 .text.__x86.get_pc_thunk.bx
                0x0000000008049c39        0x4 c:/programdata/dspace/071346ea-bffa-4465-9551-2e48edf35320/compiler/qnx650_520/host/win32/x86/usr/bin/../lib/gcc/i486-pc-nto-qnx6.5.0/5.2.0/crtbegin.o
                0x0000000008049c39                __x86.get_pc_thunk.bx
 *fill*         0x0000000008049c3d        0x3 9090
 .text          0x0000000008049c40       0x45 mdladapter_mdlfunctions.o86
                0x0000000008049c40                STLA_MECHANICAL_APTerminateSimulation
                0x0000000008049c50                STLA_MECHANICAL_APLastApplStateStopped
                0x0000000008049c70                STLA_MECHANICAL_APStopSimulation
                0x0000000008049c80                STLA_MECHANICAL_APPrintMessage
 .text          0x0000000008049c85      0x92e mdlCode_ap.o86
                0x0000000008049c85                ap_entry_STLA_MECHANICAL_SIDRoot_TID0
                0x0000000008049caf                ap_exit_STLA_MECHANICAL_SIDRoot_TID0
                0x0000000008049cc1                ap_read_STLA_MECHANICAL_DataInportSFcn_BR1_P0
                0x0000000008049ce1                ap_read_STLA_MECHANICAL_DataInportSFcn_BR1_P1
                0x0000000008049d01                ap_read_STLA_MECHANICAL_DataInportSFcn_BR1_P2
                0x0000000008049d21                ap_read_STLA_MECHANICAL_DataInportSFcn_BR1_P3
                0x0000000008049d41                ap_read_STLA_MECHANICAL_DataInportSFcn_BR1_P4
                0x0000000008049d61                ap_read_STLA_MECHANICAL_DataInportSFcn_BR1_P5
                0x0000000008049d81                ap_read_STLA_MECHANICAL_DataInportSFcn_BR1_P6
                0x0000000008049da1                ap_read_STLA_MECHANICAL_DataInportSFcn_BR1_P7
                0x0000000008049dc1                ap_read_STLA_MECHANICAL_DataInportSFcn_BR1_P8
                0x0000000008049de1                ap_read_STLA_MECHANICAL_DataInportSFcn_BR1_P9
                0x0000000008049e01                ap_read_STLA_MECHANICAL_DataInportSFcn_BR1_P10
                0x0000000008049e21                ap_read_STLA_MECHANICAL_DataInportSFcn_BR1_P11
                0x0000000008049e41                ap_read_STLA_MECHANICAL_DataInportSFcn_BR1_P12
                0x0000000008049e61                ap_read_STLA_MECHANICAL_DataInportSFcn_BR1_P13
                0x0000000008049e81                ap_read_STLA_MECHANICAL_DataInportSFcn_BR1_P14
                0x0000000008049ea1                ap_read_STLA_MECHANICAL_DataInportSFcn_BR1_P15
                0x0000000008049ec1                ap_read_STLA_MECHANICAL_DataInportSFcn_BR1_P16
                0x0000000008049ee1                ap_read_STLA_MECHANICAL_DataInportSFcn_BR1_P17
                0x0000000008049f01                ap_read_STLA_MECHANICAL_DataInportSFcn_BR1_P18
                0x0000000008049f21                ap_read_STLA_MECHANICAL_DataInportSFcn_BR1_P19
                0x0000000008049f41                ap_write_STLA_MECHANICAL_DataOutportSFcn_BW1_P0
                0x0000000008049f5f                ap_write_STLA_MECHANICAL_DataOutportSFcn_BW1_P1
                0x0000000008049f7d                ap_write_STLA_MECHANICAL_DataOutportSFcn_BW1_P2
                0x0000000008049f9b                ap_write_STLA_MECHANICAL_DataOutportSFcn_BW1_P3
                0x0000000008049fb9                ap_write_STLA_MECHANICAL_DataOutportSFcn_BW1_P4
                0x0000000008049fd7                ap_write_STLA_MECHANICAL_DataOutportSFcn_BW1_P5
                0x0000000008049ff5                ap_write_STLA_MECHANICAL_DataOutportSFcn_BW1_P6
                0x000000000804a013                ap_write_STLA_MECHANICAL_DataOutportSFcn_BW1_P7
                0x000000000804a031                ap_write_STLA_MECHANICAL_DataOutportSFcn_BW1_P8
                0x000000000804a04f                ap_write_STLA_MECHANICAL_DataOutportSFcn_BW1_P9
                0x000000000804a06d                ap_write_STLA_MECHANICAL_DataOutportSFcn_BW1_P10
                0x000000000804a08b                ap_write_STLA_MECHANICAL_DataOutportSFcn_BW1_P11
                0x000000000804a0a9                ap_write_STLA_MECHANICAL_DataOutportSFcn_BW1_P12
                0x000000000804a0c7                ap_write_STLA_MECHANICAL_DataOutportSFcn_BW1_P13
                0x000000000804a0e5                ap_write_STLA_MECHANICAL_DataOutportSFcn_BW1_P14
                0x000000000804a103                ap_write_STLA_MECHANICAL_DataOutportSFcn_BW1_P15
                0x000000000804a121                ap_write_STLA_MECHANICAL_DataOutportSFcn_BW1_P16
                0x000000000804a13f                ap_write_STLA_MECHANICAL_DataOutportSFcn_BW1_P17
                0x000000000804a15d                ap_write_STLA_MECHANICAL_DataOutportSFcn_BW1_P18
                0x000000000804a17b                ap_write_STLA_MECHANICAL_DataOutportSFcn_BW1_P19
                0x000000000804a199                ap_write_STLA_MECHANICAL_DataOutportSFcn_BW1_P20
                0x000000000804a1b7                ap_write_STLA_MECHANICAL_DataOutportSFcn_BW1_P21
                0x000000000804a1d5                ap_write_STLA_MECHANICAL_DataOutportSFcn_BW1_P22
                0x000000000804a1f3                ap_write_STLA_MECHANICAL_DataOutportSFcn_BW1_P23
                0x000000000804a211                ap_write_STLA_MECHANICAL_DataOutportSFcn_BW1_P24
                0x000000000804a22f                ap_write_STLA_MECHANICAL_DataOutportSFcn_BW1_P25
                0x000000000804a24d                ap_write_STLA_MECHANICAL_DataOutportSFcn_BW1_P26
                0x000000000804a26b                ap_write_STLA_MECHANICAL_DataOutportSFcn_BW1_P27
                0x000000000804a289                ap_write_STLA_MECHANICAL_DataOutportSFcn_BW1_P28
                0x000000000804a2a7                ap_write_STLA_MECHANICAL_DataOutportSFcn_BW1_P29
                0x000000000804a2c5                ap_write_STLA_MECHANICAL_DataOutportSFcn_BW1_P30
                0x000000000804a2e3                ap_write_STLA_MECHANICAL_DataOutportSFcn_BW1_P31
                0x000000000804a301                ap_write_STLA_MECHANICAL_DataOutportSFcn_BW1_P32
                0x000000000804a31f                ap_write_STLA_MECHANICAL_DataOutportSFcn_BW1_P33
                0x000000000804a33d                ap_write_STLA_MECHANICAL_DataOutportSFcn_BW1_P34
                0x000000000804a35b                ap_write_STLA_MECHANICAL_DataOutportSFcn_BW1_P35
                0x000000000804a379                ap_write_STLA_MECHANICAL_DataOutportSFcn_BW1_P36
                0x000000000804a397                ap_write_STLA_MECHANICAL_DataOutportSFcn_BW1_P37
                0x000000000804a3b5                ap_write_STLA_MECHANICAL_DataOutportSFcn_BW1_P38
                0x000000000804a3d3                ap_write_STLA_MECHANICAL_DataOutportSFcn_BW1_P39
                0x000000000804a3f1                ap_write_STLA_MECHANICAL_DataOutportSFcn_BW1_P40
                0x000000000804a40f                ap_write_STLA_MECHANICAL_DataOutportSFcn_BW1_P41
                0x000000000804a42d                ap_write_STLA_MECHANICAL_DataOutportSFcn_BW1_P42
                0x000000000804a44b                ap_write_STLA_MECHANICAL_DataOutportSFcn_BW1_P43
                0x000000000804a469                ap_write_STLA_MECHANICAL_DataOutportSFcn_BW1_P44
                0x000000000804a487                ap_write_STLA_MECHANICAL_DataOutportSFcn_BW1_P45
                0x000000000804a4a5                ap_write_STLA_MECHANICAL_DataOutportSFcn_BW1_P46
                0x000000000804a4c3                ap_write_STLA_MECHANICAL_DataOutportSFcn_BW1_P47
                0x000000000804a4e1                ap_write_STLA_MECHANICAL_DataOutportSFcn_BW1_P48
                0x000000000804a4ff                ap_write_STLA_MECHANICAL_DataOutportSFcn_BW1_P49
                0x000000000804a51d                ap_write_STLA_MECHANICAL_DataOutportSFcn_BW1_P50
                0x000000000804a53b                ap_write_STLA_MECHANICAL_DataOutportSFcn_BW1_P51
                0x000000000804a559                ap_write_STLA_MECHANICAL_DataOutportSFcn_BW1_P52
                0x000000000804a577                ap_write_STLA_MECHANICAL_DataOutportSFcn_BW1_P53
                0x000000000804a595                ap_write_STLA_MECHANICAL_DataOutportSFcn_BW1_P54
 *fill*         0x000000000804a5b3        0xd 9090
 .text          0x000000000804a5c0      0x4a1 dssimengine_accesspoint.o86
                0x000000000804a5c0                _Z17ApSimEngineOnInitR16DsCErrorListPool
                0x000000000804a730                _Z18ApSimEngineOnStartR16DsCErrorListPool
                0x000000000804a760                _Z17ApSimEngineOnStopR16DsCErrorListPool
                0x000000000804a770                _Z22ApSimEngineOnTerminateR16DsCErrorListPool
                0x000000000804a780                _Z19ApSimEngineOnUnloadR16DsCErrorListPool
                0x000000000804a790                _Z20ApSimEngineOnInitMdlR16DsCErrorListPool
                0x000000000804a7a0                _Z21ApSimEngineOnStartMdlR16DsCErrorListPool
                0x000000000804a7b0                _Z20ApSimEngineOnStopMdlR16DsCErrorListPool
                0x000000000804a7c0                _Z25ApSimEngineOnTerminateMdlR16DsCErrorListPool
                0x000000000804a7d0                _Z22ApSimEngineOnUnloadMdlR16DsCErrorListPool
                0x000000000804a7e0                _Z20ApSimEngineOnInitImcR16DsCErrorListPool
                0x000000000804a890                _Z21ApSimEngineOnStartImcR16DsCErrorListPool
                0x000000000804a8a0                _Z20ApSimEngineOnStopImcR16DsCErrorListPool
                0x000000000804a8b0                _Z25ApSimEngineOnTerminateImcR16DsCErrorListPool
                0x000000000804a8c0                _Z22ApSimEngineOnUnloadImcR16DsCErrorListPool
                0x000000000804a8d0                _Z30ApSimEngineOnInitIoPreRtosInitR16DsCErrorListPool
                0x000000000804a8f0                _Z31ApSimEngineOnInitIoPostRtosInitR16DsCErrorListPool
                0x000000000804a900                _Z30ApSimEngineOnInitHwDiagnosticsR16DsCErrorListPool
                0x000000000804a990                _Z20ApSimEngineOnStartIoR16DsCErrorListPool
                0x000000000804a9b0                _Z19ApSimEngineOnStopIoR16DsCErrorListPool
                0x000000000804a9c0                _Z24ApSimEngineOnTerminateIoR16DsCErrorListPool
                0x000000000804a9d0                _Z21ApSimEngineOnUnloadIoR16DsCErrorListPool
                0x000000000804a9e0                _Z21ApSimEngineOnInitRtosR16DsCErrorListPool
                0x000000000804aa10                _Z22ApSimEngineOnStartRtosR16DsCErrorListPool
                0x000000000804aa20                _Z21ApSimEngineOnStopRtosR16DsCErrorListPool
                0x000000000804aa30                _Z26ApSimEngineOnTerminateRtosR16DsCErrorListPool
                0x000000000804aa40                _Z23ApSimEngineOnUnloadRtosR16DsCErrorListPool
                0x000000000804aa50                _Z15ApSimEngineIdleR16DsCErrorListPool
                0x000000000804aa60                _Z22ApSimEngineRunTimeInitR16DsCErrorListPooli
 *fill*         0x000000000804aa61        0xf 9090
 .text          0x000000000804aa70       0x56 dssimengine_api.o86
                0x000000000804aa70                _Z25SimEngineLastApplStateGetv
                0x000000000804aa80                _Z17SimEngineApplStopv
                0x000000000804aaa0                _Z22SimEngineApplTerminatev
                0x000000000804aac0                _Z16SimEngineApplGetv
 *fill*         0x000000000804aac6        0xa 9090
 .text          0x000000000804aad0      0x1a3 dssimengine_main.o86
                0x000000000804aad0                destroyApplication
                0x000000000804ab00                getApplicationErrorList
                0x000000000804ab10                _ZN18DsCApplicationMainD1Ev
                0x000000000804ab10                _ZN18DsCApplicationMainD2Ev
                0x000000000804ab30                _ZN18DsCApplicationMainD0Ev
                0x000000000804ab60                createApplication
                0x000000000804abb0                _ZN18DsCApplicationMain6onInitER16DsCErrorListPool
                0x000000000804abd0                _ZN18DsCApplicationMain7onStartER16DsCErrorListPool
                0x000000000804abf0                _ZN18DsCApplicationMain6onStopER16DsCErrorListPool
                0x000000000804ac10                _ZN18DsCApplicationMain11onTerminateER16DsCErrorListPool
                0x000000000804ac30                _ZN18DsCApplicationMain8onUnloadER16DsCErrorListPool
                0x000000000804ac40                _ZN18DsCApplicationMain6onIdleER16DsCErrorListPool
                0x000000000804ac50                _ZN18DsCApplicationMainC1ER16DsCErrorListPool
                0x000000000804ac50                _ZN18DsCApplicationMainC2ER16DsCErrorListPool
 *fill*         0x000000000804ac73        0xd 9090
 .text          0x000000000804ac80      0x2ea rtosal_task.o86
                0x000000000804ac80                _ZN24DsCRtosAlPeriodic_Task_2D1Ev
                0x000000000804ac80                _ZN24DsCRtosAlPeriodic_Task_2D2Ev
                0x000000000804ac90                _ZN24DsCRtosAlPeriodic_Task_2D0Ev
                0x000000000804acc0                _ZN24DsCRtosAlPeriodic_Task_25onRunER16DsCErrorListPool
                0x000000000804ad00                _ZN24DsCRtosAlPeriodic_Task_29onOverrunER16DsCErrorListPool
                0x000000000804ad90                _ZN24DsCRtosAlPeriodic_Task_2C1ER16DsCErrorListPoolP14DsCApplicationPKcjjjjjjjP7DsCTaskj
                0x000000000804ad90                _ZN24DsCRtosAlPeriodic_Task_2C2ER16DsCErrorListPoolP14DsCApplicationPKcjjjjjjjP7DsCTaskj
                0x000000000804ade0                _ZN24DsCRtosAlPeriodic_Task_26createER16DsCErrorListPoolP14DsCApplicationPKcjjjjjjjP7DsCTaskj
                0x000000000804ae60                _Z37RtosAlDefaultDeadlineViolationHandlerR16DsCErrorListPoolP7DsCTask
                0x000000000804aed0                _Z20RtosAlHandleOverrunsP7DsCTaski
 *fill*         0x000000000804af6a        0x6 9090
 .text          0x000000000804af70       0x78 rtosal_taskap.o86
                0x000000000804af70                RtosAlTask_03_TaskEntry
                0x000000000804af80                RtosAlTask_03_TaskExit
 *fill*         0x000000000804afe8        0x8 9090
 .text          0x000000000804aff0      0x1f4 rtosal_simengineap.o86
                0x000000000804aff0                _Z12RtosAlOnInitR16DsCErrorListPool
                0x000000000804b0a0                _Z13RtosAlOnStartR16DsCErrorListPool
 .text          0x000000000804b1e4        0x0 IOCode_Data.o86
 .text          0x000000000804b1e4        0x0 mdlcfg_interapplcom.o86
 *fill*         0x000000000804b1e4        0xc 9090
 .text          0x000000000804b1f0      0xb73 rtosal_interapplcom.o86
                0x000000000804b1f0                _ZN13DsCSendBuffer16CreateSendBufferER16DsCErrorListPooljjjPKcj
                0x000000000804b240                _ZN13DsCSendBufferC2EP11DsCMpSenderjj
                0x000000000804b240                _ZN13DsCSendBufferC1EP11DsCMpSenderjj
                0x000000000804b260                _ZN13DsCSendBuffer12WriteFloat64EjPdj
                0x000000000804b2d0                _ZN13DsCSendBuffer12WriteFloat32EjPfj
                0x000000000804b340                _ZN13DsCSendBuffer10WriteInt32EjPij
                0x000000000804b3b0                _ZN13DsCSendBuffer11WriteUInt32EjPjj
                0x000000000804b420                _ZN13DsCSendBuffer10WriteInt16EjPsj
                0x000000000804b490                _ZN13DsCSendBuffer11WriteUInt16EjPtj
                0x000000000804b500                _ZN13DsCSendBuffer9WriteInt8EjPcj
                0x000000000804b570                _ZN13DsCSendBuffer10WriteUInt8EjPhj
                0x000000000804b5e0                _ZN13DsCSendBuffer9WriteBoolEjPhj
                0x000000000804b650                _ZN13DsCSendBuffer5ResetEv
                0x000000000804b660                _ZN13DsCSendBuffer18SendIfBufferFilledEv
                0x000000000804b680                _ZN22DsCCommunicationBundle12OnReadAccessEv
                0x000000000804b790                _ZN22DsCCommunicationBundle11ReadFloat64EjPdjj
                0x000000000804b800                _ZN22DsCCommunicationBundle10ReadUInt32EjPjjj
                0x000000000804b870                _ZN22DsCCommunicationBundle10ReadUInt16EjPtjj
                0x000000000804b8e0                _ZN22DsCCommunicationBundle8ReadBoolEjPhjj
                0x000000000804b950                _ZN22DsCCommunicationBundle9ReadInt16EjPsjj
                0x000000000804b9c0                _ZN22DsCCommunicationBundle8ReadInt8EjPcjj
                0x000000000804ba30                _ZN22DsCCommunicationBundle9ReadUInt8EjPhjj
                0x000000000804baa0                _ZN22DsCCommunicationBundle11ReadFloat32EjPfjj
                0x000000000804bb10                _ZN22DsCCommunicationBundle9ReadInt32EjPijj
                0x000000000804bb80                _ZN22DsCCommunicationBundle5ResetEv
                0x000000000804bb90                _ZN22DsCCommunicationBundle25CreateCommunicationBundleENS_8ProtocolEj
                0x000000000804bc70                _ZN22DsCCommunicationBundleC1ENS_8ProtocolEj
                0x000000000804bc70                _ZN22DsCCommunicationBundleC2ENS_8ProtocolEj
                0x000000000804bd20                _ZN22DsCCommunicationBundle19CreateReceiveBufferER16DsCErrorListPooljjjPKcj
 *fill*         0x000000000804bd63        0xd 9090
 .text          0x000000000804bd70      0x1a4 STLA_MECHANICAL.a(STLA_MECHANICAL_dsrtmdlfcn.lo86)
                0x000000000804bd70                STLA_MECHANICAL_DSRTInitMdl
                0x000000000804bdc0                STLA_MECHANICAL_DSRTStartMdl
                0x000000000804be40                STLA_MECHANICAL_DSRTStopMdl
                0x000000000804be90                STLA_MECHANICAL_DSRTCheckForErrorStatus
                0x000000000804bed0                STLA_MECHANICAL_DSRTCheckForSimulationStopCondition
 *fill*         0x000000000804bf14        0xc 9090
 .text          0x000000000804bf20       0x15 STLA_MECHANICAL.a(STLA_MECHANICAL_dsrttf.lo86)
                0x000000000804bf20                STLA_MECHANICAL_DSRTMdlOutputs0
                0x000000000804bf30                STLA_MECHANICAL_DSRTMdlUpdate0
 *fill*         0x000000000804bf35        0xb 9090
 .text          0x000000000804bf40      0x6a5 STLA_MECHANICAL.a(STLA_MECHANICAL.lo86)
                0x000000000804bf40                STLA_MECHANICAL_output
                0x000000000804c460                STLA_MECHANICAL_update
                0x000000000804c480                STLA_MECHANICAL_initialize
                0x000000000804c5e0                STLA_MECHANICAL_terminate
 .text          0x000000000804c5e5        0x0 STLA_MECHANICAL.a(STLA_MECHANICAL_data.lo86)
 .text          0x000000000804c5e5       0x27 STLA_MECHANICAL.a(STLA_MECHANICAL_dsrtvdf.lo86)
                0x000000000804c605                STLA_MECHANICAL_rti_init_trc_pointers
 *fill*         0x000000000804c60c        0x4 9090
 .text          0x000000000804c610     0x405a Punch_mechanical_B_sample_v3_6_cal_v2_C_rtwlib.lib(Punch_mechanical_B_sample_v3_6_cal_v2_C.lo86)
                0x000000000804c8d0                Punch_mechanical_B_sample_v3_6_cal_v2_C_Init
                0x000000000804caf0                Punch_mechanical_B_sample_v3_6_cal_v2_C_Reset
                0x000000000804cc50                Punch_mechanical_B_sample_v3_6_cal_v2_C_Disable
                0x000000000804cd40                Punch_mechanical_B_sample_v3_6_cal_v2_C_Start
                0x000000000804d480                Punch_mechanical_B_sample_v3_6_cal_v2_C
                0x000000000804ffa0                Punch_mechanical_B_sample_v3_6_cal_v2_C_Update
                0x0000000008050590                Punch_mechanical_B_sample_v3_6_cal_v2_C_Term
                0x0000000008050610                Punch_mechanical_B_sample_v3_6_cal_v2_C_initialize
 .text          0x000000000805066a       0x63 Punch_mechanical_B_sample_v3_6_cal_v2_C_rtwlib.lib(Punch_mechanical_B_sample_v3_6_cal_v2_C_dsrtvdf.lo86)
                0x00000000080506c6                Punch_mechanical_B_sample_v3_6_cal_v2_C_rti_init_trc_pointers
 *fill*         0x00000000080506cd        0x3 9090
 .text          0x00000000080506d0       0xaa Punch_mechanical_B_sample_v3_6_cal_v2_C_rtwlib.lib(Punch_mechanical_B_sample_v3_6_cal_v2_C_9a4b384b_1_gateway.lo86)
                0x00000000080506d0                Punch_mechanical_B_sample_v3_6_cal_v2_C_9a4b384b_1_gateway
 *fill*         0x000000000805077a        0x6 9090
 .text          0x0000000008050780      0x3b0 Punch_mechanical_B_sample_v3_6_cal_v2_C_rtwlib.lib(Punch_mechanical_B_sample_v3_6_cal_v2_C_9a4b384b_1.lo86)
                0x0000000008050a60                Punch_mechanical_B_sample_v3_6_cal_v2_C_9a4b384b_1_dae
 .text          0x0000000008050b30     0x367d Punch_mechanical_B_sample_v3_6_cal_v2_C_rtwlib.lib(Punch_mechanical_B_sample_v3_6_cal_v2_C_9a4b384b_1_ds.lo86)
                0x0000000008052950                Punch_mechanical_B_sample_v3_6_cal_v2_C_9a4b384b_1_dae_ds
 *fill*         0x00000000080541ad        0x3 9090
 .text          0x00000000080541b0     0x1399 Punch_mechanical_B_sample_v3_6_cal_v2_C_rtwlib.lib(Punch_mechanical_B_sample_v3_6_cal_v2_C_9a4b384b_1_ds_cache_i.lo86)
                0x00000000080541b0                Punch_mechanical_B_sample_v3_6_cal_v2_C_9a4b384b_1_ds_cache_i
 *fill*         0x0000000008055549        0x7 9090
 .text          0x0000000008055550      0x20f Punch_mechanical_B_sample_v3_6_cal_v2_C_rtwlib.lib(Punch_mechanical_B_sample_v3_6_cal_v2_C_9a4b384b_1_ds_assert.lo86)
                0x0000000008055550                Punch_mechanical_B_sample_v3_6_cal_v2_C_9a4b384b_1_ds_assert
 *fill*         0x000000000805575f        0x1 9090
 .text          0x0000000008055760      0x295 Punch_mechanical_B_sample_v3_6_cal_v2_C_rtwlib.lib(Punch_mechanical_B_sample_v3_6_cal_v2_C_9a4b384b_1_ds_q1.lo86)
                0x0000000008055760                Punch_mechanical_B_sample_v3_6_cal_v2_C_9a4b384b_1_ds_q1
 *fill*         0x00000000080559f5        0xb 9090
 .text          0x0000000008055a00     0x1071 Punch_mechanical_B_sample_v3_6_cal_v2_C_rtwlib.lib(Punch_mechanical_B_sample_v3_6_cal_v2_C_9a4b384b_1_ds_dxf_p.lo86)
                0x0000000008055a00                Punch_mechanical_B_sample_v3_6_cal_v2_C_9a4b384b_1_ds_dxf_p
 *fill*         0x0000000008056a71        0xf 9090
 .text          0x0000000008056a80      0x959 Punch_mechanical_B_sample_v3_6_cal_v2_C_rtwlib.lib(Punch_mechanical_B_sample_v3_6_cal_v2_C_9a4b384b_1_ds_dxm_p.lo86)
                0x0000000008056a80                Punch_mechanical_B_sample_v3_6_cal_v2_C_9a4b384b_1_ds_dxm_p
 *fill*         0x00000000080573d9        0x7 9090
 .text          0x00000000080573e0      0x959 Punch_mechanical_B_sample_v3_6_cal_v2_C_rtwlib.lib(Punch_mechanical_B_sample_v3_6_cal_v2_C_9a4b384b_1_ds_dxdelt_p.lo86)
                0x00000000080573e0                Punch_mechanical_B_sample_v3_6_cal_v2_C_9a4b384b_1_ds_dxdelt_p
 *fill*         0x0000000008057d39        0x7 9090
 .text          0x0000000008057d40     0x5275 Punch_mechanical_B_sample_v3_6_cal_v2_C_rtwlib.lib(Punch_mechanical_B_sample_v3_6_cal_v2_C_9a4b384b_1_ds_f.lo86)
                0x0000000008057d40                Punch_mechanical_B_sample_v3_6_cal_v2_C_9a4b384b_1_ds_f
 *fill*         0x000000000805cfb5        0xb 9090
 .text          0x000000000805cfc0     0x4290 Punch_mechanical_B_sample_v3_6_cal_v2_C_rtwlib.lib(Punch_mechanical_B_sample_v3_6_cal_v2_C_9a4b384b_1_ds_update_i.lo86)
                0x000000000805cfc0                Punch_mechanical_B_sample_v3_6_cal_v2_C_9a4b384b_1_ds_update_i
 .text          0x0000000008061250     0x1d41 Punch_mechanical_B_sample_v3_6_cal_v2_C_rtwlib.lib(Punch_mechanical_B_sample_v3_6_cal_v2_C_9a4b384b_1_ds_qx_p.lo86)
                0x0000000008061250                Punch_mechanical_B_sample_v3_6_cal_v2_C_9a4b384b_1_ds_qx_p
 *fill*         0x0000000008062f91        0xf 9090
 .text          0x0000000008062fa0     0x621b Punch_mechanical_B_sample_v3_6_cal_v2_C_rtwlib.lib(Punch_mechanical_B_sample_v3_6_cal_v2_C_9a4b384b_1_ds_dxf.lo86)
                0x0000000008062fa0                Punch_mechanical_B_sample_v3_6_cal_v2_C_9a4b384b_1_ds_dxf
 *fill*         0x00000000080691bb        0x5 9090
 .text          0x00000000080691c0      0x1b6 Punch_mechanical_B_sample_v3_6_cal_v2_C_rtwlib.lib(Punch_mechanical_B_sample_v3_6_cal_v2_C_9a4b384b_1_ds_duf.lo86)
                0x00000000080691c0                Punch_mechanical_B_sample_v3_6_cal_v2_C_9a4b384b_1_ds_duf
 *fill*         0x0000000008069376        0xa 9090
 .text          0x0000000008069380     0x4791 Punch_mechanical_B_sample_v3_6_cal_v2_C_rtwlib.lib(Punch_mechanical_B_sample_v3_6_cal_v2_C_9a4b384b_1_ds_obs_act.lo86)
                0x0000000008069380                Punch_mechanical_B_sample_v3_6_cal_v2_C_9a4b384b_1_ds_obs_act
 *fill*         0x000000000806db11        0xf 9090
 .text          0x000000000806db20      0xdc0 Punch_mechanical_B_sample_v3_6_cal_v2_C_rtwlib.lib(Punch_mechanical_B_sample_v3_6_cal_v2_C_9a4b384b_1_ds_a.lo86)
                0x000000000806db20                Punch_mechanical_B_sample_v3_6_cal_v2_C_9a4b384b_1_ds_a
 .text          0x000000000806e8e0     0x2180 Punch_mechanical_B_sample_v3_6_cal_v2_C_rtwlib.lib(Punch_mechanical_B_sample_v3_6_cal_v2_C_9a4b384b_1_ds_obs_exp.lo86)
                0x000000000806e8e0                Punch_mechanical_B_sample_v3_6_cal_v2_C_9a4b384b_1_ds_obs_exp
 .text          0x0000000008070a60     0x1729 Punch_mechanical_B_sample_v3_6_cal_v2_C_rtwlib.lib(Punch_mechanical_B_sample_v3_6_cal_v2_C_9a4b384b_1_ds_a_p.lo86)
                0x0000000008070a60                Punch_mechanical_B_sample_v3_6_cal_v2_C_9a4b384b_1_ds_a_p
 *fill*         0x0000000008072189        0x7 9090
 .text          0x0000000008072190     0x20cf Punch_mechanical_B_sample_v3_6_cal_v2_C_rtwlib.lib(Punch_mechanical_B_sample_v3_6_cal_v2_C_9a4b384b_1_ds_tdxf_p.lo86)
                0x0000000008072190                Punch_mechanical_B_sample_v3_6_cal_v2_C_9a4b384b_1_ds_tdxf_p
 *fill*         0x000000000807425f        0x1 9090
 .text          0x0000000008074260     0x16b1 Punch_mechanical_B_sample_v3_6_cal_v2_C_rtwlib.lib(Punch_mechanical_B_sample_v3_6_cal_v2_C_9a4b384b_1_ds_qx.lo86)
                0x0000000008074260                Punch_mechanical_B_sample_v3_6_cal_v2_C_9a4b384b_1_ds_qx
 *fill*         0x0000000008075911        0xf 9090
 .text          0x0000000008075920      0x54a Punch_mechanical_B_sample_v3_6_cal_v2_C_rtwlib.lib(Punch_mechanical_B_sample_v3_6_cal_v2_C_9a4b384b_1_ds_vmf.lo86)
                0x0000000008075920                Punch_mechanical_B_sample_v3_6_cal_v2_C_9a4b384b_1_ds_vmf
 *fill*         0x0000000008075e6a        0x6 9090
 .text          0x0000000008075e70      0x54a Punch_mechanical_B_sample_v3_6_cal_v2_C_rtwlib.lib(Punch_mechanical_B_sample_v3_6_cal_v2_C_9a4b384b_1_ds_slf.lo86)
                0x0000000008075e70                Punch_mechanical_B_sample_v3_6_cal_v2_C_9a4b384b_1_ds_slf
 *fill*         0x00000000080763ba        0x6 9090
 .text          0x00000000080763c0      0x860 Punch_mechanical_B_sample_v3_6_cal_v2_C_rtwlib.lib(Punch_mechanical_B_sample_v3_6_cal_v2_C_9a4b384b_1_ds_ic.lo86)
                0x00000000080763c0                Punch_mechanical_B_sample_v3_6_cal_v2_C_9a4b384b_1_ds_ic
 .text          0x0000000008076c20      0x959 Punch_mechanical_B_sample_v3_6_cal_v2_C_rtwlib.lib(Punch_mechanical_B_sample_v3_6_cal_v2_C_9a4b384b_1_ds_dxicr_p.lo86)
                0x0000000008076c20                Punch_mechanical_B_sample_v3_6_cal_v2_C_9a4b384b_1_ds_dxicr_p
 *fill*         0x0000000008077579        0x7 9090
 .text          0x0000000008077580     0x4779 Punch_mechanical_B_sample_v3_6_cal_v2_C_rtwlib.lib(Punch_mechanical_B_sample_v3_6_cal_v2_C_9a4b384b_1_ds_log.lo86)
                0x0000000008077580                Punch_mechanical_B_sample_v3_6_cal_v2_C_9a4b384b_1_ds_log
 *fill*         0x000000000807bcf9        0x7 9090
 .text          0x000000000807bd00      0x379 Punch_mechanical_B_sample_v3_6_cal_v2_C_rtwlib.lib(Punch_mechanical_B_sample_v3_6_cal_v2_C_9a4b384b_1_ds_m.lo86)
                0x000000000807bd00                Punch_mechanical_B_sample_v3_6_cal_v2_C_9a4b384b_1_ds_m
 *fill*         0x000000000807c079        0x7 9090
 .text          0x000000000807c080      0xc75 Punch_mechanical_B_sample_v3_6_cal_v2_C_rtwlib.lib(Punch_mechanical_B_sample_v3_6_cal_v2_C_9a4b384b_1_ds_m_p.lo86)
                0x000000000807c080                Punch_mechanical_B_sample_v3_6_cal_v2_C_9a4b384b_1_ds_m_p
 *fill*         0x000000000807ccf5        0xb 9090
 .text          0x000000000807cd00      0x16d Punch_mechanical_B_sample_v3_6_cal_v2_C_rtwlib.lib(Punch_mechanical_B_sample_v3_6_cal_v2_C_9a4b384b_1_ds_vmm.lo86)
                0x000000000807cd00                Punch_mechanical_B_sample_v3_6_cal_v2_C_9a4b384b_1_ds_vmm
 *fill*         0x000000000807ce6d        0x3 9090
 .text          0x000000000807ce70     0x3d34 Punch_mechanical_B_sample_v3_6_cal_v2_C_rtwlib.lib(Punch_mechanical_B_sample_v3_6_cal_v2_C_9a4b384b_1_ds_mode.lo86)
                0x000000000807ce70                Punch_mechanical_B_sample_v3_6_cal_v2_C_9a4b384b_1_ds_mode
 *fill*         0x0000000008080ba4        0xc 9090
 .text          0x0000000008080bb0     0x51c2 Punch_mechanical_B_sample_v3_6_cal_v2_C_rtwlib.lib(Punch_mechanical_B_sample_v3_6_cal_v2_C_9a4b384b_1_ds_obs_all.lo86)
                0x0000000008080bb0                Punch_mechanical_B_sample_v3_6_cal_v2_C_9a4b384b_1_ds_obs_all
 *fill*         0x0000000008085d72        0xe 9090
 .text          0x0000000008085d80      0x31f Punch_mechanical_B_sample_v3_6_cal_v2_C_rtwlib.lib(Punch_mechanical_B_sample_v3_6_cal_v2_C_9a4b384b_1_ds_q1_p.lo86)
                0x0000000008085d80                Punch_mechanical_B_sample_v3_6_cal_v2_C_9a4b384b_1_ds_q1_p
 *fill*         0x000000000808609f        0x1 9090
 .text          0x00000000080860a0      0x799 Punch_mechanical_B_sample_v3_6_cal_v2_C_rtwlib.lib(Punch_mechanical_B_sample_v3_6_cal_v2_C_9a4b384b_1_ds_var_tol.lo86)
                0x00000000080860a0                Punch_mechanical_B_sample_v3_6_cal_v2_C_9a4b384b_1_ds_var_tol
 *fill*         0x0000000008086839        0x7 9090
 .text          0x0000000008086840      0x799 Punch_mechanical_B_sample_v3_6_cal_v2_C_rtwlib.lib(Punch_mechanical_B_sample_v3_6_cal_v2_C_9a4b384b_1_ds_eq_tol.lo86)
                0x0000000008086840                Punch_mechanical_B_sample_v3_6_cal_v2_C_9a4b384b_1_ds_eq_tol
 *fill*         0x0000000008086fd9        0x7 9090
 .text          0x0000000008086fe0      0x54a Punch_mechanical_B_sample_v3_6_cal_v2_C_rtwlib.lib(Punch_mechanical_B_sample_v3_6_cal_v2_C_9a4b384b_1_ds_lv.lo86)
                0x0000000008086fe0                Punch_mechanical_B_sample_v3_6_cal_v2_C_9a4b384b_1_ds_lv
 *fill*         0x000000000808752a        0x6 9090
 .text          0x0000000008087530      0x54a Punch_mechanical_B_sample_v3_6_cal_v2_C_rtwlib.lib(Punch_mechanical_B_sample_v3_6_cal_v2_C_9a4b384b_1_ds_slv.lo86)
                0x0000000008087530                Punch_mechanical_B_sample_v3_6_cal_v2_C_9a4b384b_1_ds_slv
 *fill*         0x0000000008087a7a        0x6 9090
 .text          0x0000000008087a80      0x804 Punch_mechanical_B_sample_v3_6_cal_v2_C_rtwlib.lib(Punch_mechanical_B_sample_v3_6_cal_v2_C_9a4b384b_1_ds_y.lo86)
                0x0000000008087a80                Punch_mechanical_B_sample_v3_6_cal_v2_C_9a4b384b_1_ds_y
 *fill*         0x0000000008088284        0xc 9090
 .text          0x0000000008088290      0x2d1 Punch_mechanical_B_sample_v3_6_cal_v2_C_rtwlib.lib(Punch_mechanical_B_sample_v3_6_cal_v2_C_9a4b384b_1_ds_dxy.lo86)
                0x0000000008088290                Punch_mechanical_B_sample_v3_6_cal_v2_C_9a4b384b_1_ds_dxy
 *fill*         0x0000000008088561        0xf 9090
 .text          0x0000000008088570      0xc2f Punch_mechanical_B_sample_v3_6_cal_v2_C_rtwlib.lib(Punch_mechanical_B_sample_v3_6_cal_v2_C_9a4b384b_1_ds_dxy_p.lo86)
                0x0000000008088570                Punch_mechanical_B_sample_v3_6_cal_v2_C_9a4b384b_1_ds_dxy_p
 *fill*         0x000000000808919f        0x1 9090
 .text          0x00000000080891a0      0x959 Punch_mechanical_B_sample_v3_6_cal_v2_C_rtwlib.lib(Punch_mechanical_B_sample_v3_6_cal_v2_C_9a4b384b_1_ds_mdxy_p.lo86)
                0x00000000080891a0                Punch_mechanical_B_sample_v3_6_cal_v2_C_9a4b384b_1_ds_mdxy_p
 *fill*         0x0000000008089af9        0x7 9090
 .text          0x0000000008089b00      0xc2f Punch_mechanical_B_sample_v3_6_cal_v2_C_rtwlib.lib(Punch_mechanical_B_sample_v3_6_cal_v2_C_9a4b384b_1_ds_tdxy_p.lo86)
                0x0000000008089b00                Punch_mechanical_B_sample_v3_6_cal_v2_C_9a4b384b_1_ds_tdxy_p
 *fill*         0x000000000808a72f        0x1 9090
 .text          0x000000000808a730     0x487f Punch_mechanical_B_sample_v3_6_cal_v2_C_rtwlib.lib(Punch_mechanical_B_sample_v3_6_cal_v2_C_9a4b384b_1_ds_zc.lo86)
                0x000000000808a730                Punch_mechanical_B_sample_v3_6_cal_v2_C_9a4b384b_1_ds_zc
 *fill*         0x000000000808efaf        0x1 9090
 .text          0x000000000808efb0       0xf6 rtwshared.lib(look1_pbinlcapw.lo86)
                0x000000000808efb0                look1_pbinlcapw
 *fill*         0x000000000808f0a6        0xa 9090
 .text          0x000000000808f0b0      0x20c rtwshared.lib(look2_pbinlcapw.lo86)
                0x000000000808f0b0                look2_pbinlcapw
 *fill*         0x000000000808f2bc        0x4 9090
 .text          0x000000000808f2c0      0x12e rtwshared.lib(rt_backsubrr_dbl.lo86)
                0x000000000808f2c0                rt_BackwardSubstitutionRR_Dbl
 *fill*         0x000000000808f3ee        0x2 9090
 .text          0x000000000808f3f0      0x13b rtwshared.lib(rt_forwardsubrr_dbl.lo86)
                0x000000000808f3f0                rt_ForwardSubstitutionRR_Dbl
 *fill*         0x000000000808f52b        0x5 9090
 .text          0x000000000808f530      0x1f5 rtwshared.lib(rt_lu_real.lo86)
                0x000000000808f530                rt_lu_real
 *fill*         0x000000000808f725        0xb 9090
 .text          0x000000000808f730       0xd3 rtwshared.lib(rt_nonfinite.lo86)
                0x000000000808f730                rt_InitInfAndNaN
                0x000000000808f7a0                rtIsInf
                0x000000000808f7d0                rtIsInfF
                0x000000000808f7f0                rtIsNaN
                0x000000000808f800                rtIsNaNF
 *fill*         0x000000000808f803        0xd 9090
 .text          0x000000000808f810       0x37 rtwshared.lib(rtGetInf.lo86)
                0x000000000808f810                rtGetInf
                0x000000000808f820                rtGetInfF
                0x000000000808f830                rtGetMinusInf
                0x000000000808f840                rtGetMinusInfF
 *fill*         0x000000000808f847        0x9 9090
 .text          0x000000000808f850       0x17 rtwshared.lib(rtGetNaN.lo86)
                0x000000000808f850                rtGetNaN
                0x000000000808f860                rtGetNaNF
 *fill*         0x000000000808f867        0x9 9090
 .text          0x000000000808f870       0x21 ssc_sli_r2017b_dsx86_32_2.a(ssc_sli_0bd269e6.lo86)
                0x000000000808f870                nesl_get_registry
 *fill*         0x000000000808f891        0xf 9090
 .text          0x000000000808f8a0      0x58a ssc_sli_r2017b_dsx86_32_2.a(ssc_sli_5a0cb974.lo86)
                0x000000000808fdc0                ssc_sli_2ICKAUc2rtXm87BR1bAFp_
 *fill*         0x000000000808fe2a        0x6 9090
 .text          0x000000000808fe30      0x286 ssc_sli_r2017b_dsx86_32_2.a(ssc_sli_c7dda239.lo86)
                0x000000000808fe30                ssc_sli_4pohl6e0FbXT6mM5_ujhR_
                0x000000000808fe40                ssc_sli_kb6QKbQTGQuW1rGAPnOSc1
                0x000000000808fe60                ssc_sli_q4ZL4wosX8E8rxBxqVhOS2
                0x000000000808ff20                ssc_sli_Yyyyv_FVc98oseOb4QC5s_
                0x000000000808ffb0                ssc_sli_DPTDo5lZ_ZdickCe_KKtq1
                0x0000000008090000                ssc_sli_fiJi3uM7OyMaTB_wGR7742
 *fill*         0x00000000080900b6        0xa 9090
 .text          0x00000000080900c0       0x99 ssc_sli_r2017b_dsx86_32_2.a(ssc_sli_fbdf29da.lo86)
                0x00000000080900c0                nesl_register_simulator_group
 *fill*         0x0000000008090159        0x7 9090
 .text          0x0000000008090160      0x796 ssc_sli_r2017b_dsx86_32_2.a(ssc_sli_fa0ce53e.lo86)
                0x00000000080903c0                ssc_sli_Rurh8U_aGE7kCb83oxHdd_
 *fill*         0x00000000080908f6        0xa 9090
 .text          0x0000000008090900       0x31 ssc_sli_r2017b_dsx86_32_2.a(ssc_sli_550a4805.lo86)
                0x0000000008090900                ssc_sli_sq4UViwbqBlOn8H31Xq1L2
                0x0000000008090910                ssc_sli_gFKP6pUbMSJAvH4pOgOLr0
 *fill*         0x0000000008090931        0xf 9090
 .text          0x0000000008090940     0x25f5 ssc_sli_r2017b_dsx86_32_2.a(ssc_sli_89d0f30a.lo86)
                0x0000000008092440                ssc_sli__3HpsuD4tEkysyRqYOVuN2
 *fill*         0x0000000008092f35        0xb 9090
 .text          0x0000000008092f40      0x17f ssc_sli_r2017b_dsx86_32_2.a(ssc_sli_9c030181.lo86)
                0x0000000008092fc0                ssc_sli_E8RSLrfHgkqgx4wfXO6642
 *fill*         0x00000000080930bf        0x1 9090
 .text          0x00000000080930c0       0x51 ssc_sli_r2017b_dsx86_32_2.a(ssc_sli_dcd66f69.lo86)
                0x00000000080930c0                ssc_sli_uVz2_8dEWPK_VhOuU1W_61
 *fill*         0x0000000008093111        0xf 9090
 .text          0x0000000008093120      0x5a9 ssc_sli_r2017b_dsx86_32_2.a(ssc_sli_eb0a5702.lo86)
                0x0000000008093120                ssc_sli_sHgG6i7aCvAP6u9uurhOT2
                0x0000000008093660                ssc_sli_buT8J3b8CZdWR5__10pAc0
 *fill*         0x00000000080936c9        0x7 9090
 .text          0x00000000080936d0      0x185 ssc_sli_r2017b_dsx86_32_2.a(ssc_sli_0763c151.lo86)
                0x00000000080937e0                ssc_sli_V7p69pHXW4rgivU3cJW5B2
 *fill*         0x0000000008093855        0xb 9090
 .text          0x0000000008093860      0x378 ssc_sli_r2017b_dsx86_32_2.a(ssc_sli_360cfd63.lo86)
                0x0000000008093ae0                ssc_sli_c8_UTMsLTHfyr5CjubrN51
 *fill*         0x0000000008093bd8        0x8 9090
 .text          0x0000000008093be0       0x8d ssc_sli_r2017b_dsx86_32_2.a(ssc_sli_43618287.lo86)
                0x0000000008093c30                ssc_sli_EB3M9tXZx509ANBJLEnDY0
 *fill*         0x0000000008093c6d        0x3 9090
 .text          0x0000000008093c70      0x5e4 ssc_sli_r2017b_dsx86_32_2.a(ssc_sli_466b08dd.lo86)
                0x0000000008093fa0                ssc_sli_pFxqqiId48ny9EvEamQrt1
 *fill*         0x0000000008094254        0xc 9090
 .text          0x0000000008094260      0xbe0 ssc_sli_r2017b_dsx86_32_2.a(ssc_sli_4e028390.lo86)
                0x0000000008094930                ssc_sli_t1mz1m4tkH_gEly9HfvtD_
 .text          0x0000000008094e40      0x6eb ssc_sli_r2017b_dsx86_32_2.a(ssc_sli_51dbd3b5.lo86)
                0x00000000080954b0                ssc_sli_2x_QtpMTlSMJAjr57lVrn1
                0x00000000080954f0                ssc_sli_ye694KsHY_9o40PF9hQgK1
 .text          0x000000000809552b        0x0 ssc_sli_r2017b_dsx86_32_2.a(ssc_sli_62d81790.lo86)
 *fill*         0x000000000809552b        0x5 9090
 .text          0x0000000008095530      0x247 ssc_sli_r2017b_dsx86_32_2.a(ssc_sli_77063d8b.lo86)
                0x00000000080955d0                ssc_sli_C6J30L4RPDHSYMVHsit8f2
 *fill*         0x0000000008095777        0x9 9090
 .text          0x0000000008095780      0x1e2 ssc_sli_r2017b_dsx86_32_2.a(ssc_sli_7a618260.lo86)
                0x00000000080958e0                ssc_sli_oOi2yMLNCrDwFx73MCtXx0
 *fill*         0x0000000008095962        0xe 9090
 .text          0x0000000008095970      0x5a0 ssc_sli_r2017b_dsx86_32_2.a(ssc_sli_7f630b0f.lo86)
                0x0000000008095c60                ssc_sli_jJ8u_rhn_sDwC_Zjeutny_
 .text          0x0000000008095f10      0x336 ssc_sli_r2017b_dsx86_32_2.a(ssc_sli_8a64c4e2.lo86)
                0x0000000008096170                ssc_sli_gSpjnXrXH0lEZ69cTLftW_
 *fill*         0x0000000008096246        0xa 9090
 .text          0x0000000008096250      0x271 ssc_core_r2017b_dsx86_32_2.a(ssc_core_05058dd9.lo86)
                0x0000000008096250                ne_dae_create
 *fill*         0x00000000080964c1        0xf 9090
 .text          0x00000000080964d0       0x91 ssc_core_r2017b_dsx86_32_2.a(ssc_core_1c6b0332.lo86)
                0x00000000080964d0                ssc_core_dRWp9JbibX_UMin4k570c2
                0x00000000080964e0                ssc_core_LhAARrcW_BZ5uJQX4PVan0
                0x0000000008096510                ssc_core_yVTkMg4qQje1n6xjR3qhB1
                0x0000000008096540                ssc_core_LVQvYF25W9LKQ2akKjewr2
 *fill*         0x0000000008096561        0xf 9090
 .text          0x0000000008096570      0xced ssc_core_r2017b_dsx86_32_2.a(ssc_core_2568b075.lo86)
                0x0000000008097220                neu_create_diagnostic_tree_printer
 *fill*         0x000000000809725d        0x3 9090
 .text          0x0000000008097260      0x1b7 ssc_core_r2017b_dsx86_32_2.a(ssc_core_360a4baf.lo86)
                0x0000000008097310                ssc_core__PyfTe0_4mfaADZpzds3p_
 *fill*         0x0000000008097417        0x9 9090
 .text          0x0000000008097420       0x50 ssc_core_r2017b_dsx86_32_2.a(ssc_core_4965213d.lo86)
                0x0000000008097420                ssc_core_uGpjxUnuZoGTn3A2UEAnr1
                0x0000000008097430                ssc_core_BmcZfnah8TT3gDeIhSzt8_
                0x0000000008097440                ssc_core_YEzfn1J8w7BuxrSNeK2Ps2
                0x0000000008097450                ssc_core_YY9DJzPlh7Ys_RY9yOhZP1
                0x0000000008097460                ssc_core_TqsXlXk3ucCm_drC9Du9l2
 .text          0x0000000008097470     0x5c16 ssc_core_r2017b_dsx86_32_2.a(ssc_core_67d1f118.lo86)
                0x000000000809bc50                ssc_core_eXAQ36tHqky1NKtnqYAID0
                0x000000000809bc80                ssc_core_2ck4gAPWwcjZmJeLgOk742
 *fill*         0x000000000809d086        0xa 9090
 .text          0x000000000809d090      0x166 ssc_core_r2017b_dsx86_32_2.a(ssc_core_6b6b89d2.lo86)
                0x000000000809d090                ssc_core_TliJB7XydE72SBNNVAEtu1
 *fill*         0x000000000809d1f6        0xa 9090
 .text          0x000000000809d200      0x101 ssc_core_r2017b_dsx86_32_2.a(ssc_core_6dd833f3.lo86)
                0x000000000809d200                ssc_core_elG0Z6m31zdm6FxOcNTzA2
 *fill*         0x000000000809d301        0xf 9090
 .text          0x000000000809d310      0x5ba ssc_core_r2017b_dsx86_32_2.a(ssc_core_8569edc5.lo86)
                0x000000000809d6b0                ssc_core_5C0xhLOoRC3fJgi4RTlPT0
 *fill*         0x000000000809d8ca        0x6 9090
 .text          0x000000000809d8d0      0xcb1 ssc_core_r2017b_dsx86_32_2.a(ssc_core_8a6471dc.lo86)
                0x000000000809e010                ssc_core_J3Ao_kQl749J_gAaotgXj1
                0x000000000809e360                ssc_core_XL1l34fMXFir6F19y1M0I2
 *fill*         0x000000000809e581        0xf 9090
 .text          0x000000000809e590      0x8f5 ssc_core_r2017b_dsx86_32_2.a(ssc_core_97d767fe.lo86)
                0x000000000809eb40                neu_create_diagnostic_manager
                0x000000000809ec40                ssc_core_ngsKQfybc3dXXgWu3kMDK_
                0x000000000809ec70                ssc_core_IKSN8QHwicUJYTLVFP7Ia0
                0x000000000809eca0                ssc_core_7iomSuWDwroANLyLpFWrN_
                0x000000000809ecd0                ssc_core_D4HdOXDY4msISsxzAoWjV_
                0x000000000809edb0                ssc_core_1C51fYR3zpbOEkQ1RRAIQ0
 *fill*         0x000000000809ee85        0xb 9090
 .text          0x000000000809ee90       0xc4 ssc_core_r2017b_dsx86_32_2.a(ssc_core_a4d4c45e.lo86)
                0x000000000809ee90                ssc_core_cFMkGB7h_L63UXdmos2Ip2
 *fill*         0x000000000809ef54        0xc 9090
 .text          0x000000000809ef60     0x1da5 ssc_core_r2017b_dsx86_32_2.a(ssc_core_abd5e7b4.lo86)
                0x000000000809fd90                ssc_core_UwsNphqb6KAoBdO6EsIW22
                0x000000000809fdf0                ssc_core_lC87bxvqqA2YcLjum2V6F0
 *fill*         0x00000000080a0d05        0xb 9090
 .text          0x00000000080a0d10      0xa2f ssc_core_r2017b_dsx86_32_2.a(ssc_core_acb64294.lo86)
                0x00000000080a0d10                ssc_core_Rw3BkFzG8gnY9kEHCmowX0
 *fill*         0x00000000080a173f        0x1 9090
 .text          0x00000000080a1740      0x539 ssc_core_r2017b_dsx86_32_2.a(ssc_core_acb6462e.lo86)
                0x00000000080a19f0                ssc_core_rQuTqmilQ6n8XJr5DJcYk_
 *fill*         0x00000000080a1c79        0x7 9090
 .text          0x00000000080a1c80       0xc6 ssc_core_r2017b_dsx86_32_2.a(ssc_core_b1038cbb.lo86)
                0x00000000080a1c80                ssc_core_TPvw9_TNPmPodt127xmJ4_
                0x00000000080a1ce0                ssc_core_iIxgs0hqqLm0qm_pJCX6y1
                0x00000000080a1d40                ssc_core_Ck0wX_rJ_iktUtP5JT98A2
 *fill*         0x00000000080a1d46        0xa 9090
 .text          0x00000000080a1d50      0x1f2 ssc_core_r2017b_dsx86_32_2.a(ssc_core_b10e34f4.lo86)
                0x00000000080a1d50                ssc_core_upzasIKI73T5H12GhcJKO_
                0x00000000080a1dd0                ssc_core_Bf6HdQWxCVqHVEtYe__F2_
                0x00000000080a1e50                ssc_core_MzhO1QYLYIub_iE0Lh69Y_
                0x00000000080a1ed0                ssc_core_kSO9pLYpaKWggY19SNw322
 *fill*         0x00000000080a1f42        0xe 9090
 .text          0x00000000080a1f50     0x8104 ssc_core_r2017b_dsx86_32_2.a(ssc_core_b2b3b239.lo86)
                0x00000000080a7f00                ssc_core_qQM68xQyJ_RcWKVcqW9sD_
                0x00000000080a8140                ssc_core_vSY5w86KE4mlbRi2_97sE0
                0x00000000080a88a0                ssc_core_dbrEvcqKNUSn1WX_d_SnU_
 *fill*         0x00000000080aa054        0xc 9090
 .text          0x00000000080aa060       0x7c ssc_core_r2017b_dsx86_32_2.a(ssc_core_b402b40d.lo86)
                0x00000000080aa060                ssc_core_gk2YzOMNaO1L10iL2MTWo_
 *fill*         0x00000000080aa0dc        0x4 9090
 .text          0x00000000080aa0e0      0x209 ssc_core_r2017b_dsx86_32_2.a(ssc_core_bb0b2992.lo86)
                0x00000000080aa0e0                ssc_core_adZYJyhnmlQ1TPOWbUmYi0
                0x00000000080aa0f0                ssc_core_LoQn0uLUE6zUi3fsB1sK30
                0x00000000080aa100                ssc_core_i7iQCl1Adxj10R2tia2wP1
                0x00000000080aa120                ssc_core__6H0tw9QLljpzOsy0qpQr1
                0x00000000080aa160                ssc_core_gVy5pHnfANfvKZbIAsefs0
 *fill*         0x00000000080aa2e9        0x7 9090
 .text          0x00000000080aa2f0      0x1dd ssc_core_r2017b_dsx86_32_2.a(ssc_core_c3003040.lo86)
                0x00000000080aa3c0                ssc_core_wglk5bklrG2pvHB9b5jui0
                0x00000000080aa410                ssc_core_nahQuflEVft3jG6R2nPsv_
 *fill*         0x00000000080aa4cd        0x3 9090
 .text          0x00000000080aa4d0      0x292 ssc_core_r2017b_dsx86_32_2.a(ssc_core_c5b63cb2.lo86)
                0x00000000080aa4d0                ssc_core_umtzGYFtjuHkNtzcoD4qX0
                0x00000000080aa4f0                ssc_core_BBCtUOPmIaGxuGJNUc5N92
                0x00000000080aa540                ssc_core_NOTmCu_46oVHaFNXLGESF2
                0x00000000080aa590                ssc_core_RRA1wZLLXZ5Tlm7pg0CL8_
 *fill*         0x00000000080aa762        0xe 9090
 .text          0x00000000080aa770      0x712 ssc_core_r2017b_dsx86_32_2.a(ssc_core_c607b660.lo86)
                0x00000000080aa9b0                ssc_core_sm_3M_JEK3Vj6_N2PRYR5_
                0x00000000080aaa30                ssc_core_KdXO1aybH6t3ec3pG457O_
                0x00000000080aab90                ssc_core_GY1Hesggjx3z24Bz87NxC2
                0x00000000080aac50                ssc_core_EqCb_9yUbnbrwHTmcz3iQ2
 *fill*         0x00000000080aae82        0xe 9090
 .text          0x00000000080aae90     0x30bc ssc_core_r2017b_dsx86_32_2.a(ssc_core_c8d83e88.lo86)
                0x00000000080aaec0                ssc_core_gEyIAehr6EsMWfY_86nbm_
                0x00000000080aaee0                ssc_core_c4zEEmuEIkxdRfOE9BhGM_
                0x00000000080aaef0                ssc_core_V25ZP4KBzUrJbGUYJh8TR2
                0x00000000080aaf00                ssc_core_vtfq1J_fVp_C9s5bGi7DA1
                0x00000000080ab520                ssc_core_N16yo9abWY8Biio_75C4b1
                0x00000000080ac210                ssc_core_1xnGGKUdA8Okl5fpmfQ6w_
                0x00000000080ac3e0                ssc_core_XQgVrVu3DeLNYl_qSutzw2
                0x00000000080ac470                ssc_core_cy6PYRv6Fhv2Wac2sLnIv2
                0x00000000080ad230                ssc_core_Fr35HkcazkW8nT0Zob5QG0
                0x00000000080ad260                ssc_core_ljAJtXQnFmFKn9DvR2luT2
                0x00000000080ad290                ssc_core_YzZWWS5tWVx8pxMll02Zp0
                0x00000000080ad2c0                ssc_core_z5_M_MI_Ay9YiX9B8rs56_
 *fill*         0x00000000080adf4c        0x4 9090
 .text          0x00000000080adf50       0x35 ssc_core_r2017b_dsx86_32_2.a(ssc_core_cab615c8.lo86)
                0x00000000080adf50                ssc_core_TFLMyp9S46TGiMjNWQngU_
 *fill*         0x00000000080adf85        0xb 9090
 .text          0x00000000080adf90      0x1bc ssc_core_r2017b_dsx86_32_2.a(ssc_core_cabdc251.lo86)
                0x00000000080ae090                ssc_core_aSSVcmMMljSzLU_YlJkGl1
 *fill*         0x00000000080ae14c        0x4 9090
 .text          0x00000000080ae150      0x62c ssc_core_r2017b_dsx86_32_2.a(ssc_core_cc067f58.lo86)
                0x00000000080ae150                ssc_core_eQQZn0mK4z_YcF5hR7yJk2
                0x00000000080ae1a0                ssc_core__gIXCdq5UKaugd526_pk6_
                0x00000000080ae1f0                ssc_core_Uc_Q9LupTJHDYS4lx0BDn1
                0x00000000080ae260                ssc_core_8psaRrpCCOn6HriRMVxgC2
                0x00000000080ae2d0                ssc_core_v0faJq3LrwKiwnBxqq2iq0
                0x00000000080ae390                ssc_core_KFBiw10ACp_Ew_Z1qNSHa1
                0x00000000080ae450                ssc_core_f5MHumOCch0tCq79cG1VH0
                0x00000000080ae570                ssc_core_Z3mz9xG04iN_4XIJorDOA_
                0x00000000080ae650                ssc_core_0QeH76q46BQvLprm_Tlld_
                0x00000000080ae730                ssc_core_fCsjJ_IGaPmqFgfw11ykx2
 *fill*         0x00000000080ae77c        0x4 9090
 .text          0x00000000080ae780       0xb9 ssc_core_r2017b_dsx86_32_2.a(ssc_core_d06d763c.lo86)
                0x00000000080ae780                ssc_core_biIXXeRoHRpAgC9_WCCbS2
 *fill*         0x00000000080ae839        0x7 9090
 .text          0x00000000080ae840      0x3b0 ssc_core_r2017b_dsx86_32_2.a(ssc_core_d3d34d7c.lo86)
                0x00000000080aea00                ssc_core_Q8zN4VSHEAuFGp3fK_2A02
                0x00000000080aeb00                ssc_core_h3nMF5ioSGva4wRX7_cqk_
 .text          0x00000000080aebf0      0x176 ssc_core_r2017b_dsx86_32_2.a(ssc_core_d807fa59.lo86)
                0x00000000080aecc0                ssc_core_4SD6l8P8QouU0LAfzJ7VA_
 *fill*         0x00000000080aed66        0xa 9090
 .text          0x00000000080aed70      0x6e8 ssc_core_r2017b_dsx86_32_2.a(ssc_core_d9d13dac.lo86)
                0x00000000080af2e0                ssc_core_cQ8TKXZ5_7JiUDwtUDzmq0
 *fill*         0x00000000080af458        0x8 9090
 .text          0x00000000080af460      0x68a ssc_core_r2017b_dsx86_32_2.a(ssc_core_deb7fd8d.lo86)
                0x00000000080af6f0                ssc_core_SY5iq88lE_ZpbWdK29FMr2
                0x00000000080af790                ssc_core_HXOOLijT3btWX73yDmy4C0
                0x00000000080af7e0                ssc_core_jrP2XJJ6jaHt_vYbyMjUr0
 *fill*         0x00000000080afaea        0x6 9090
 .text          0x00000000080afaf0      0x711 ssc_core_r2017b_dsx86_32_2.a(ssc_core_e0d0866d.lo86)
                0x00000000080afb80                ssc_core_G4vlAAXeG84zHWDRpyPp_2
                0x00000000080afcf0                ssc_core_cJSI_5dkPgnGMqGb6z87a0
                0x00000000080b0130                ssc_core_EJJnO9nC1on7tSybeFclI0
                0x00000000080b01c0                ssc_core_h0V_61vV8dBbOBJrH6nFe1
 *fill*         0x00000000080b0201        0xf 9090
 .text          0x00000000080b0210      0x1d4 ssc_core_r2017b_dsx86_32_2.a(ssc_core_e2b61d72.lo86)
                0x00000000080b0210                ssc_core_XHMFCG29I7WpkhrSZPbru_
                0x00000000080b02b0                ssc_core_UZFFgfCEhNw6X7zG55m2G0
                0x00000000080b02f0                ssc_core_btkFlX3M7ra4wAM8jMp4P0
                0x00000000080b0340                ssc_core_2jsvF43lgBo1VuHGwMtml0
                0x00000000080b03a0                ssc_core_c9LjIn6cucAugpiTuQIA7_
 .text          0x00000000080b03e4        0x0 ssc_core_r2017b_dsx86_32_2.a(ssc_core_e400c1c2.lo86)
 .text          0x00000000080b03e4        0x0 ssc_core_r2017b_dsx86_32_2.a(ssc_core_ee000fbe.lo86)
 *fill*         0x00000000080b03e4        0xc 9090
 .text          0x00000000080b03f0     0x3e75 ssc_core_r2017b_dsx86_32_2.a(ssc_core_ee01086d.lo86)
                0x00000000080b0520                ssc_core_6AM9yuJG69_vY7HJ4nHiq2
                0x00000000080b3a90                ssc_core_ARW3tZa9qG4qBAJmW7_6O2
 *fill*         0x00000000080b4265        0xb 9090
 .text          0x00000000080b4270      0x3d3 ssc_core_r2017b_dsx86_32_2.a(ssc_core_ee0f0141.lo86)
                0x00000000080b42d0                ssc_core_ZwHAm_2NMKU_gz_gq26x9_
                0x00000000080b4370                ssc_core_gvKJ_W0W1PnZIi_aCZvZT1
                0x00000000080b4410                ssc_core_CLxt84L2za1h7gT9YaGTg_
                0x00000000080b4420                ssc_core_ycXveUjkzrD7Kv03WTD3w_
                0x00000000080b44d0                ssc_core_I_20CA0ycVr6HlLYHEI1f2
                0x00000000080b4580                ssc_core__1o3AtLL_X0mbhwEfCQLs2
                0x00000000080b45f0                ssc_core_r9YDnT7vZB3uR5K1liVVB1
                0x00000000080b4620                ssc_core_6GsKYZLmXL6fHT5iWWFd9_
 *fill*         0x00000000080b4643        0xd 9090
 .text          0x00000000080b4650     0x12f2 ssc_core_r2017b_dsx86_32_2.a(ssc_core_f9b6dbed.lo86)
                0x00000000080b5840                ssc_core_XJ98Rdp7LAWduCaQ2G0kM_
 *fill*         0x00000000080b5942        0xe 9090
 .text          0x00000000080b5950      0x599 ssc_core_r2017b_dsx86_32_2.a(ssc_core_fa09e9e6.lo86)
                0x00000000080b5d40                ssc_core_TZx5kGCYj_WuTkCj8X1uF_
 *fill*         0x00000000080b5ee9        0x7 9090
 .text          0x00000000080b5ef0      0x34c ssc_core_r2017b_dsx86_32_2.a(ssc_core_fbd34e62.lo86)
                0x00000000080b5ef0                ssc_core_fwQZmJzPHBi_PGsHDk3fx0
                0x00000000080b5f70                ssc_core_llS5Vqs90UNHMz4VuNZRx2
                0x00000000080b5fe0                ssc_core_MvzPpKhPmzGeGp9HvmxhL2
                0x00000000080b5ff0                ssc_core_zDagGGu9id7ephBmtA23t2
                0x00000000080b6000                ssc_core_OLdTMNH34fSEV35KqfpoY_
                0x00000000080b6070                ssc_core_3eilWz9sAQaBWBd52c_oS_
 *fill*         0x00000000080b623c        0x4 9090
 .text          0x00000000080b6240       0x98 ssc_core_r2017b_dsx86_32_2.a(ssc_core_ff06d9a4.lo86)
                0x00000000080b6240                ssc_core_Kl6RwWmygRWr5BUjV6IGx_
                0x00000000080b6290                ssc_core_mkjpR0vQmcrhrlni2eedU2
 *fill*         0x00000000080b62d8        0x8 9090
 .text          0x00000000080b62e0      0x10b ssc_core_r2017b_dsx86_32_2.a(ssc_core_01dcc633.lo86)
                0x00000000080b63a0                ssc_core_ygIXPaw9WDUPsc2lj0Yoh0
 *fill*         0x00000000080b63eb        0x5 9090
 .text          0x00000000080b63f0      0xcdb ssc_core_r2017b_dsx86_32_2.a(ssc_core_06ba68a6.lo86)
                0x00000000080b6f90                ssc_core_MduakhLy6AP85_FyUVoJX2
 *fill*         0x00000000080b70cb        0x5 9090
 .text          0x00000000080b70d0     0x20fb ssc_core_r2017b_dsx86_32_2.a(ssc_core_0f019bd9.lo86)
                0x00000000080b7ee0                ssc_core_MK_VphneVajX_SldLmEQq0
 *fill*         0x00000000080b91cb        0x5 9090
 .text          0x00000000080b91d0       0x7d ssc_core_r2017b_dsx86_32_2.a(ssc_core_0f0420a6.lo86)
                0x00000000080b9210                ssc_core_4j__kh8z8I8ltQ6wGYrps0
 *fill*         0x00000000080b924d        0x3 9090
 .text          0x00000000080b9250      0x1a1 ssc_core_r2017b_dsx86_32_2.a(ssc_core_1b0cafd5.lo86)
                0x00000000080b9380                ssc_core_JslMZiKqcnP95ggOb5exk_
 *fill*         0x00000000080b93f1        0xf 9090
 .text          0x00000000080b9400      0x153 ssc_core_r2017b_dsx86_32_2.a(ssc_core_3169e4b7.lo86)
                0x00000000080b94f0                ssc_core_dhrA8zmAPxlQneG4eVGDJ2
 *fill*         0x00000000080b9553        0xd 9090
 .text          0x00000000080b9560      0x4e9 ssc_core_r2017b_dsx86_32_2.a(ssc_core_37d4ea84.lo86)
                0x00000000080b9730                ssc_core_b0_xSyIJLUuOxv2Y8lAda2
 *fill*         0x00000000080b9a49        0x7 9090
 .text          0x00000000080b9a50      0x529 ssc_core_r2017b_dsx86_32_2.a(ssc_core_40dfdbdc.lo86)
                0x00000000080b9d60                ssc_core_j1O7IJIgs7AcYJ6LVs67f1
 *fill*         0x00000000080b9f79        0x7 9090
 .text          0x00000000080b9f80       0x2c ssc_core_r2017b_dsx86_32_2.a(ssc_core_41017299.lo86)
                0x00000000080b9f80                ssc_core_vSaQKcUZagg_AJCptR5FT0
 *fill*         0x00000000080b9fac        0x4 9090
 .text          0x00000000080b9fb0       0x7d ssc_core_r2017b_dsx86_32_2.a(ssc_core_4666b45b.lo86)
                0x00000000080b9ff0                ssc_core_QASum97EN_NK90eDhNPce2
 *fill*         0x00000000080ba02d        0x3 9090
 .text          0x00000000080ba030      0x42c ssc_core_r2017b_dsx86_32_2.a(ssc_core_48b1386a.lo86)
                0x00000000080ba1f0                ssc_core_PTIgSdOWO79t38OEhoj3W0
                0x00000000080ba270                ssc_core_8owQ6c6PoSFm1om138B9c2
                0x00000000080ba2f0                ssc_core_ekcPneRciHO64IFPAbzzO2
                0x00000000080ba3d0                ssc_core_ZlXnDtW2Np748DkSv2msV_
 *fill*         0x00000000080ba45c        0x4 9090
 .text          0x00000000080ba460      0x7be ssc_core_r2017b_dsx86_32_2.a(ssc_core_4ad9135b.lo86)
                0x00000000080ba970                ssc_core_JWxzH_YHSy8uo86Pw3QdG2
 *fill*         0x00000000080bac1e        0x2 9090
 .text          0x00000000080bac20       0xa1 ssc_core_r2017b_dsx86_32_2.a(ssc_core_4db6bd68.lo86)
                0x00000000080bac80                ssc_core_1izsJmzPgj3MH27vTH1dI0
 *fill*         0x00000000080bacc1        0xf 9090
 .text          0x00000000080bacd0      0x2bb ssc_core_r2017b_dsx86_32_2.a(ssc_core_4db86fcc.lo86)
                0x00000000080bae90                ssc_core_eMT7Y6pGw19X0pZ8H2FnJ_
 *fill*         0x00000000080baf8b        0x5 9090
 .text          0x00000000080baf90      0x684 ssc_core_r2017b_dsx86_32_2.a(ssc_core_4e03e39d.lo86)
                0x00000000080bb510                ssc_core_uZUXTgv2iOFXdsIkhCCl71
 *fill*         0x00000000080bb614        0xc 9090
 .text          0x00000000080bb620      0x338 ssc_core_r2017b_dsx86_32_2.a(ssc_core_54d55ae9.lo86)
                0x00000000080bb7f0                ssc_core_7Z4mSc7C1zHVb1rnZadkB1
 *fill*         0x00000000080bb958        0x8 9090
 .text          0x00000000080bb960      0x34f ssc_core_r2017b_dsx86_32_2.a(ssc_core_56b1a2bf.lo86)
                0x00000000080bb960                ssc_core_QZOt0DWUV_2evkoHyS77Q0
 *fill*         0x00000000080bbcaf        0x1 9090
 .text          0x00000000080bbcb0      0x971 ssc_core_r2017b_dsx86_32_2.a(ssc_core_59b034b8.lo86)
                0x00000000080bc310                ssc_core_vDtkhv5OPK3G6obtMq0b4_
 *fill*         0x00000000080bc621        0xf 9090
 .text          0x00000000080bc630     0x2ba3 ssc_core_r2017b_dsx86_32_2.a(ssc_core_5d6ba758.lo86)
                0x00000000080bdec0                ssc_core_ofFEKk7FVuRIzJM86WlQW0
                0x00000000080bdf20                ssc_core_A4cxMKUqzZnEkyTRrpIYy0
 *fill*         0x00000000080bf1d3        0xd 9090
 .text          0x00000000080bf1e0      0x246 ssc_core_r2017b_dsx86_32_2.a(ssc_core_68da074b.lo86)
                0x00000000080bf1e0                ssc_core_t4R1bBstEd4CW_gAokYLf1
 *fill*         0x00000000080bf426        0xa 9090
 .text          0x00000000080bf430      0x850 ssc_core_r2017b_dsx86_32_2.a(ssc_core_73d9c2b7.lo86)
                0x00000000080bf910                ssc_core_3s2N3qN8bFWNmjMUJ6y_g0
 .text          0x00000000080bfc80      0x103 ssc_core_r2017b_dsx86_32_2.a(ssc_core_79dd08ab.lo86)
                0x00000000080bfd30                ssc_core_Lo4EESuguNsJuDmGHU97O1
 *fill*         0x00000000080bfd83        0xd 9090
 .text          0x00000000080bfd90      0x8b6 ssc_core_r2017b_dsx86_32_2.a(ssc_core_7a613edb.lo86)
                0x00000000080c0410                ssc_core_sKWsTuamPLkQUraSYYjOE_
 *fill*         0x00000000080c0646        0xa 9090
 .text          0x00000000080c0650      0xe98 ssc_core_r2017b_dsx86_32_2.a(ssc_core_83db8762.lo86)
                0x00000000080c0650                ssc_core_cS_tsSPxRFnA51nNyNl7n0
                0x00000000080c0ee0                ssc_core_rc2_jKrQ5UbdY4md_8wRJ_
 *fill*         0x00000000080c14e8        0x8 9090
 .text          0x00000000080c14f0      0x9a0 ssc_core_r2017b_dsx86_32_2.a(ssc_core_856738f2.lo86)
                0x00000000080c1bb0                ssc_core_cWqk_iwoDHWIrWXWSJQ4b_
                0x00000000080c1c80                ssc_core_bX_IcBRA9CQZUddsJ8FM_0
                0x00000000080c1cd0                ssc_core_KLu_sZ9utjY7RTHXmh7ZH0
                0x00000000080c1cf0                ssc_core_20uoDTG3vXgVNBLRvaOjK2
 .text          0x00000000080c1e90      0x34d ssc_core_r2017b_dsx86_32_2.a(ssc_core_8d0064b8.lo86)
                0x00000000080c1fa0                ssc_core_2cGqYaxvHAPXxZ_Wgb6IU1
 *fill*         0x00000000080c21dd        0x3 9090
 .text          0x00000000080c21e0      0x34b ssc_core_r2017b_dsx86_32_2.a(ssc_core_96061071.lo86)
                0x00000000080c22f0                ssc_core_zQSfi0_ws5bNbEBAHyaPS1
 *fill*         0x00000000080c252b        0x5 9090
 .text          0x00000000080c2530       0x1a ssc_core_r2017b_dsx86_32_2.a(ssc_core_9c016445.lo86)
                0x00000000080c2530                ssc_core_oxvHxb12AGWV7LUiBCr_42
                0x00000000080c2540                ssc_core_95gp3t149sj5jDNU1IE6T2
 *fill*         0x00000000080c254a        0x6 9090
 .text          0x00000000080c2550      0x2a4 ssc_core_r2017b_dsx86_32_2.a(ssc_core_9dd110ad.lo86)
                0x00000000080c2630                ssc_core_6qiax1ZuRLZo_dHHA3PrV2
 *fill*         0x00000000080c27f4        0xc 9090
 .text          0x00000000080c2800     0x15ac ssc_core_r2017b_dsx86_32_2.a(ssc_core_9fb0e229.lo86)
                0x00000000080c3640                ssc_core_8An1jaQnclgay5AHdupKI2
                0x00000000080c36f0                ssc_core_aWD5mNedAofOsYHOjTGDe0
                0x00000000080c3c20                ssc_core_EcKyFAYoUyoV7uB1o_1as2
                0x00000000080c3ca0                ssc_core_vbFZYbtrbh7GvRawixt4R1
                0x00000000080c3d10                ssc_core_0YzcETjCDYvJFn36c2nhE2
                0x00000000080c3d70                ssc_core_Sj1VePFcguWtrhG_FS_eB_
 *fill*         0x00000000080c3dac        0x4 9090
 .text          0x00000000080c3db0      0x231 ssc_core_r2017b_dsx86_32_2.a(ssc_core_9fb25b4f.lo86)
                0x00000000080c3e70                ssc_core_k8C24ESd5mwOJJgWi_ed91
 *fill*         0x00000000080c3fe1        0xf 9090
 .text          0x00000000080c3ff0      0x4d1 ssc_core_r2017b_dsx86_32_2.a(ssc_core_a1d393be.lo86)
                0x00000000080c41c0                ssc_core_2AZ4Z_6qCmnYOMypncuh11
 *fill*         0x00000000080c44c1        0xf 9090
 .text          0x00000000080c44d0      0x66e ssc_core_r2017b_dsx86_32_2.a(ssc_core_a6b78ccc.lo86)
                0x00000000080c48e0                ssc_core_Fo_bBRjc39YHa5cwwd9GT2
 *fill*         0x00000000080c4b3e        0x2 9090
 .text          0x00000000080c4b40      0x618 ssc_core_r2017b_dsx86_32_2.a(ssc_core_a867d880.lo86)
                0x00000000080c4b40                ssc_core_77C_fj8_84Tux6T6vciln2
                0x00000000080c4c40                ssc_core_YYYQ1xpQTBjtNQ_bGnKny1
                0x00000000080c4d40                ssc_core_9uGylseTy8OwzIejx96Pd1
 *fill*         0x00000000080c5158        0x8 9090
 .text          0x00000000080c5160       0x69 ssc_core_r2017b_dsx86_32_2.a(ssc_core_a9bf1ff2.lo86)
                0x00000000080c5160                ssc_core_8lSd1f9j2wcPN2pVMfmls2
 *fill*         0x00000000080c51c9        0x7 9090
 .text          0x00000000080c51d0      0x591 ssc_core_r2017b_dsx86_32_2.a(ssc_core_abd05c18.lo86)
                0x00000000080c5430                ssc_core_nj9t3kS2eGwK_wZ_6I5gT_
 *fill*         0x00000000080c5761        0xf 9090
 .text          0x00000000080c5770      0x601 ssc_core_r2017b_dsx86_32_2.a(ssc_core_b3671372.lo86)
                0x00000000080c5a20                ssc_core_JO3hmfj_hUpfsJsDp6btV1
 *fill*         0x00000000080c5d71        0xf 9090
 .text          0x00000000080c5d80      0x142 ssc_core_r2017b_dsx86_32_2.a(ssc_core_b7b88213.lo86)
                0x00000000080c5e50                ssc_core_VidamJOL1TN7ZwpE1QEqW2
 *fill*         0x00000000080c5ec2        0xe 9090
 .text          0x00000000080c5ed0       0x5b ssc_core_r2017b_dsx86_32_2.a(ssc_core_b96ebc21.lo86)
                0x00000000080c5ed0                ssc_core_sSWn9cdxHQhGj7S5B9N462
 *fill*         0x00000000080c5f2b        0x5 9090
 .text          0x00000000080c5f30      0xeea ssc_core_r2017b_dsx86_32_2.a(ssc_core_c5b050d7.lo86)
                0x00000000080c5f60                ssc_core_DWAv09NEtcA43YPg64BmR0
                0x00000000080c61a0                ssc_core_RqBg1QBO_ajmloj_8ONNg1
                0x00000000080c6690                ssc_core_jkFjhNF3ezT1jIUYVq_iO2
                0x00000000080c66d0                ssc_core_icB0wBmxt5kyjxW_PLOWE_
 *fill*         0x00000000080c6e1a        0x6 9090
 .text          0x00000000080c6e20      0x123 ssc_core_r2017b_dsx86_32_2.a(ssc_core_d70a6a09.lo86)
                0x00000000080c6e20                ssc_core_y0L_5RA_m0h06ACnMw_Fl2
                0x00000000080c6e40                ssc_core_lfpHq6NwMbuUGoZWyfo6L1
                0x00000000080c6ec0                ssc_core_L6hdvLg_SzjNPn7HyIwkb2
                0x00000000080c6f10                ssc_core_Dkq9C7vnsAitu_SB40tna0
 *fill*         0x00000000080c6f43        0xd 9090
 .text          0x00000000080c6f50      0x869 ssc_core_r2017b_dsx86_32_2.a(ssc_core_dcda6edd.lo86)
                0x00000000080c71f0                ssc_core_Zbw8qNvuRLOoK_W_L8bN62
 *fill*         0x00000000080c77b9        0x7 9090
 .text          0x00000000080c77c0      0x932 ssc_core_r2017b_dsx86_32_2.a(ssc_core_09b5fa6e.lo86)
                0x00000000080c7e30                ssc_core_XkdjHdhExi4c12TaBfbhD2
 *fill*         0x00000000080c80f2        0xe 9090
 .text          0x00000000080c8100      0x4b6 ssc_core_r2017b_dsx86_32_2.a(ssc_core_0bd666aa.lo86)
                0x00000000080c8300                ssc_core_Q37iY0lJeqkuf7fZ5fKWW_
 *fill*         0x00000000080c85b6        0xa 9090
 .text          0x00000000080c85c0      0x3d5 ssc_core_r2017b_dsx86_32_2.a(ssc_core_76d825be.lo86)
                0x00000000080c8830                ssc_core_GM1KHeKei9njxwMsNf13J2
 *fill*         0x00000000080c8995        0xb 9090
 .text          0x00000000080c89a0      0x289 ssc_core_r2017b_dsx86_32_2.a(ssc_core_a4da1d0a.lo86)
                0x00000000080c8b50                ssc_core_JrUPWlC9AHbSrGrR4F1Xz0
 *fill*         0x00000000080c8c29        0x7 9090
 .text          0x00000000080c8c30      0x31b ssc_core_r2017b_dsx86_32_2.a(ssc_core_bc648043.lo86)
                0x00000000080c8ee0                ssc_core_KMTE_aBT_xXzVzJx5akgC1
 *fill*         0x00000000080c8f4b        0x5 9090
 .text          0x00000000080c8f50      0x402 ssc_core_r2017b_dsx86_32_2.a(ssc_core_ce6a84bb.lo86)
                0x00000000080c9270                ssc_core_f3kF7iQ_PEBvfrAHvLQe72
 *fill*         0x00000000080c9352        0xe 9090
 .text          0x00000000080c9360     0x10b7 ne_r2017b_dsx86_32_2.a(ne_59b4e14a.lo86)
                0x00000000080c9360                ne_m89OQc0hz9qDQnRsnDCyE2
                0x00000000080c93b0                ne_OYjOyGec_Cu_P2TYG7Jwp_
                0x00000000080c9400                ne_04nTccAGGfTttdxxhMsLp_
                0x00000000080c94d0                ne_296I30o7aJcMtBtmNyw1p0
                0x00000000080c9580                ne_Y_6lPNpUGK52BGRkt0rBo_
                0x00000000080c9620                ne_EFH9i6kjHBTVR6bR1ohlZ2
                0x00000000080c96b0                ne_gR3bRQOBxSCjR6TMEGTrv0
                0x00000000080c9830                ne_wK6KZjafZpo5jnFki5ykU1
                0x00000000080c9960                ne_qtVk1IoavdeVD014l534e1
                0x00000000080c9a10                ne_K7UYeZG0gB_hTqXd_kepN1
                0x00000000080c9bd0                ne_kuH8Z11ko4YbthBt_N5L01
                0x00000000080c9d30                ne_NWDrMiW9XOMkH3JIw1n_P0
                0x00000000080c9f50                ne_6T3HyncMpUk8SEKgIaz361
                0x00000000080ca070                ne_tCn6pEvZvwHwrS4Aj_3Wp1
                0x00000000080ca2a0                ne__L2qaG38npPGuE3csQYxh1
                0x00000000080ca310                ne_t18koedu3KGwd8SoraEF82
 *fill*         0x00000000080ca417        0x9 9090
 .text          0x00000000080ca420       0x1e mc_r2017b_dsx86_32_2.a(mc_0bd30dee.lo86)
                0x00000000080ca420                mc_Zra4dUIxxYK_M2KNCwYsF_
 *fill*         0x00000000080ca43e        0x2 9090
 .text          0x00000000080ca440      0x3a4 mc_r2017b_dsx86_32_2.a(mc_110e6c6c.lo86)
                0x00000000080ca520                mc_NlZU_fU2r5ky1zQSpwoUA1
 *fill*         0x00000000080ca7e4        0xc 9090
 .text          0x00000000080ca7f0      0x154 mc_r2017b_dsx86_32_2.a(mc_15d828ca.lo86)
                0x00000000080ca870                mc_aMPI1g4IJzx_se88DNXxp_
                0x00000000080ca8e0                mc_ojEKe9_35QoXUYpthE8Iy2
 *fill*         0x00000000080ca944        0xc 9090
 .text          0x00000000080ca950      0x2c8 mc_r2017b_dsx86_32_2.a(mc_2565d6e0.lo86)
                0x00000000080caab0                mc_mxm21WWs6l5c_8l2dz6850
 *fill*         0x00000000080cac18        0x8 9090
 .text          0x00000000080cac20      0x33a mc_r2017b_dsx86_32_2.a(mc_47b8cebe.lo86)
                0x00000000080cae70                mc_get_csparse_linear_algebra
                0x00000000080caec0                mc_NJmshN8PS2OjjJ_PhuETJ2
 *fill*         0x00000000080caf5a        0x6 9090
 .text          0x00000000080caf60     0x1f42 mc_r2017b_dsx86_32_2.a(mc_4b0301c6.lo86)
                0x00000000080cb4d0                mc_KLKWK_FbEAF724qPNbehq1
                0x00000000080cb6f0                mc_KpKqaZjZ2rh3lSToFa7Oa2
                0x00000000080cb730                mc_JM1DLKwRGzo9Uyq32V72E_
                0x00000000080cb770                mc_uJ_iGAyluQ5NndhonaPXl1
                0x00000000080cb7c0                mc_oT_HwSgZBfR7LPqZomt0Y0
                0x00000000080cb800                mc_mMmDjYPdSIEEQHj__7cd71
                0x00000000080cb8e0                mc_zYvj4jole4TnufsPoZWW_2
                0x00000000080cb940                mc_TJe2EtJyyhfHpuJYOjxfC0
                0x00000000080cb9a0                mc_si_irLJWyQLY_l4tqebAe_
                0x00000000080cb9d0                mc_SKE1EUStKD_KtRTTXrxqv2
                0x00000000080cba10                mc_OT_v_IC_x9R85Z4eHn1jA0
                0x00000000080cba60                mc_J9HotRGeuZtxiip_GSZPb0
                0x00000000080cba90                mc_lp5J2bZ8EcxnhyI1PKPZd2
                0x00000000080cbad0                mc__xr97Mh4VU4bdE2CcyEVf_
                0x00000000080cbb10                mc_pdD80p5I4a4oDKki08oZ50
                0x00000000080cbb50                mc_a_dd0x8Rstf0HD74BJt9A2
                0x00000000080cbb90                mc_8u8_LRBN9SbcEOkeum7ag0
                0x00000000080cbbd0                mc_Ukc2BYyTIIZDpb_lFOWTt0
                0x00000000080cbc10                mc_l26oJh0UM_xwSgKIeOC5J0
                0x00000000080cbc50                mc_ocDPr6f6C4_v9b5NDj8JH_
                0x00000000080cbca0                mc_fuQc8C9CyCuf_KkBLV8eb0
                0x00000000080cbce0                mc_8BTcsQ6C8h5zrW1ZQRhKf1
                0x00000000080cbd20                mc_fjtK_RGCYgp34_TjPN6zv1
                0x00000000080cbd60                mc_W0fX8K54ez0qAgM9tXjsi_
                0x00000000080cbdb0                mc_fIL9UyKjuKeUlnGmcXq5r2
                0x00000000080cbdf0                mc_v7V5uZPqLRlsEpMCWsoMJ0
                0x00000000080cbe30                mc_LlLyVwCApgTvSBfIvzOuk0
                0x00000000080cbe70                mc_DnL_y_DaeSoRsDtnK0hpB1
                0x00000000080cbeb0                mc_I_W_409sg28ysFYlBfPcr_
                0x00000000080cbf00                mc_MI5F4RaYNQR7pPk1GRkvn_
                0x00000000080cbf40                mc_lkC6x3YtrvW6L16S6aM60_
                0x00000000080cbf80                mc_vfuXLuRk3KtAfbvK_cTrv2
                0x00000000080cbfc0                mc_tOKZMGNlSqK650YhjgeKv0
                0x00000000080cbff0                mc_Uy10YSjkY75ViJd9dTdYI1
                0x00000000080cc010                mc_Rhhlgu4QH_WTKd_5kpe4I2
                0x00000000080cc040                mc_nLc17gFNFcvBlJrwxJV4w_
                0x00000000080cc060                mc_WmHTznO_Ih_dJw_MhKtIQ1
                0x00000000080cc090                mc_W7kR8viSTKC_By0UjXE_A1
                0x00000000080cc0c0                mc_AQtCbBjZ792h1_Xaj_dR92
                0x00000000080cc0f0                mc_pJmDkwzzX3Iu6_VR_MyvL_
                0x00000000080cc130                mc_tLxHiRii5tbHWjrunaI2i1
                0x00000000080cc160                mc_AZRifAjle326aZku91XJU2
                0x00000000080cc190                mc_mGD4FL6_MDLg2bdqzdpfx_
                0x00000000080cc1d0                mc_x2bRmxKlHWAMEwOZuiA_62
                0x00000000080cc210                mc_eJ9VFRIFMWxO52_BT7X_C_
                0x00000000080cc250                mc_WJAbbKueqClxuItYQx7b61
                0x00000000080cc2a0                mc_TuU8NakpY91qxLM4is2wV2
                0x00000000080cc2e0                mc_dLmR9a64iWQBHX4QM5zCr2
                0x00000000080cc310                mc_eIjmwucqCUJT1PyCl_z5b_
                0x00000000080cc340                mc_loSQGFba0sjWysbLdmqzS1
                0x00000000080cc380                mc_O_flPmjeFB4ZmON9Xp2iV_
                0x00000000080cc420                mc_K1ezq3TzhoNUE_SEp0Dr12
                0x00000000080cc490                mc_WuGlfcFda9zO01qKeAxMn_
                0x00000000080cc520                mc_qEYnRq0Ff87lxOQck1Gqi_
                0x00000000080cc5b0                mc_SZGAWN4U4XTzc5RKGKSk5_
                0x00000000080cc680                mc_FoRQvfcV_dWdjx5L1lyM_0
                0x00000000080cc7b0                mc_lBp5wbXG7AvQ3hxoerNOW_
                0x00000000080cc850                mc_z041e_QXd3uR2ef2CH37s1
                0x00000000080cc8b0                mc_6IsBGrycIJELSxeQVWGP02
                0x00000000080cc920                mc_fDK_uVHGu_qFAztUmYrXG0
                0x00000000080cc960                mc_Pv5PxBp1nNTpA2nv2TKO50
                0x00000000080cc9a0                mc_57l_YQYSoo0Ro6WNuRptH_
                0x00000000080cca00                mc_rQYUV3yV8oYU8KnRKkDRk1
                0x00000000080cca60                mc_Xx__kIPwzSZkrHpStVmJF_
                0x00000000080ccac0                mc__oSPLVBiXeFzzJsThp3Cn_
                0x00000000080ccb00                mc_BtNbeiWJf_2ScS2FihDGI0
                0x00000000080ccb70                mc_GXd0l4NyYg6UNbaEbfuyY1
                0x00000000080ccbb0                mc_rxnwynr09yoIhr_7WJOnw2
                0x00000000080ccc10                mc_0IN6lZI7UaPeQvvz13t6Z_
                0x00000000080ccc80                mc_jk3AE9w8Z153JpwqOK4cP_
                0x00000000080ccd20                mc_PUtu_CUnyMAexj3n9ThPz1
                0x00000000080ccda0                mc_wMbxp0k7MHKEjpdy17fjt_
                0x00000000080ccdf0                mc_5PAUXWifOqPPHW3wOzFa92
                0x00000000080cce80                mc_mnPo3YlQdExsVqjHael_W2
 *fill*         0x00000000080ccea2        0xe 9090
 .text          0x00000000080cceb0      0x24c mc_r2017b_dsx86_32_2.a(mc_52623861.lo86)
                0x00000000080cceb0                mc_f2vwQIrcxUZfF8toz63Ia0
 *fill*         0x00000000080cd0fc        0x4 9090
 .text          0x00000000080cd100      0x542 mc_r2017b_dsx86_32_2.a(mc_53b1fc84.lo86)
                0x00000000080cd100                mc_ag7JLdCZl_dARV0e1eXxW2
                0x00000000080cd5f0                mc_jn62AV6O9_qg9YBv46ewI_
 *fill*         0x00000000080cd642        0xe 9090
 .text          0x00000000080cd650       0xf3 mc_r2017b_dsx86_32_2.a(mc_550847c3.lo86)
                0x00000000080cd6e0                mc_GPwfjJHcyafYihHgGCzGj1
 *fill*         0x00000000080cd743        0xd 9090
 .text          0x00000000080cd750      0x365 mc_r2017b_dsx86_32_2.a(mc_5766048f.lo86)
                0x00000000080cd9e0                mc_4RuRZ7lx0_AIV_2RbGDcv2
 *fill*         0x00000000080cdab5        0xb 9090
 .text          0x00000000080cdac0      0xac8 mc_r2017b_dsx86_32_2.a(mc_59b6e413.lo86)
                0x00000000080ce4b0                mc_unUcHqjWIYGRq_Mtqq_Nn2
                0x00000000080ce520                mc_H4E5qy2gElz_ZzQWqCBUr1
 *fill*         0x00000000080ce588        0x8 9090
 .text          0x00000000080ce590       0xa6 mc_r2017b_dsx86_32_2.a(mc_630dda0e.lo86)
                0x00000000080ce590                mc_myrncps3Bp4niT9SMNSFU0
 *fill*         0x00000000080ce636        0xa 9090
 .text          0x00000000080ce640      0x2ad mc_r2017b_dsx86_32_2.a(mc_67da4f41.lo86)
                0x00000000080ce8b0                mc_lWin2S7t5q07svjpaKvX60
 *fill*         0x00000000080ce8ed        0x3 9090
 .text          0x00000000080ce8f0     0x10cd mc_r2017b_dsx86_32_2.a(mc_6b6d311a.lo86)
                0x00000000080ce8f0                mc_KsHKr785vZol8pKqB3aCB_
 *fill*         0x00000000080cf9bd        0x3 9090
 .text          0x00000000080cf9c0      0x1d5 mc_r2017b_dsx86_32_2.a(mc_7bbf41f0.lo86)
                0x00000000080cfab0                mc_FtZHnvAu1ydcKmSyTHoPB_
 *fill*         0x00000000080cfb95        0xb 9090
 .text          0x00000000080cfba0      0xc89 mc_r2017b_dsx86_32_2.a(mc_7d0547c8.lo86)
                0x00000000080cfba0                mc_7Utwm4UP5EbKnr_ZlI1rM0
                0x00000000080cfc10                mc_hi2C1FdA4yvzwtyhiEpLf_
                0x00000000080cfc60                mc_rKjDE_AmbMZonmcHpiUlF1
                0x00000000080cfca0                mc_6FVLtwvEtwZZEx0IrCbSN2
                0x00000000080cfce0                mc_XPd7yGMWFG3KbpflsI_GY0
                0x00000000080cfd30                mc_mZFOWT0aPE1StpucCfoDM1
                0x00000000080cfda0                mc_solyOVPZWIj1_pu1stGfb0
                0x00000000080cff20                mc_unPaCMmYpqovJtaEkLzyN1
                0x00000000080cff90                mc__PSxZYNlHzTq74xTEuRVj0
                0x00000000080cffe0                mc_qP6AnJ_Ei4yw5QTYCEPwt1
                0x00000000080d0020                mc_98Iaz4fhzQI48PBv4_WiP1
                0x00000000080d0070                mc_6vECghaEBo2t_m2BMLpQG1
                0x00000000080d0100                mc_e1VfSiMgTtGRWHAR2ryPb_
                0x00000000080d0190                mc_wVymHZk9mNp4ZXEZOzo4W_
                0x00000000080d01f0                mc_Q1Ex_NgE5y9PuUgpZWKDz2
                0x00000000080d0240                mc_ctmDXqtr5oRwV0C8sxgt_2
                0x00000000080d02a0                mc_qvI9jhqDXNPz_o6c5YwIH_
                0x00000000080d0360                mc_KlD4siTDVGCr_hHFkaT5u2
                0x00000000080d0420                mc_GbGkA_AntJv_J5PoE7OWF0
                0x00000000080d04e0                mc_KnhMCkpZXB7ZHMoHOGTgf_
                0x00000000080d05a0                mc_lkrFDcUiR663Ni3ZTyROd0
                0x00000000080d05e0                mc_JXBtkP6XktDn46ROAvtrZ0
                0x00000000080d0720                mc_q4X4I4aw_A_s3GAV3n5kp2
 *fill*         0x00000000080d0829        0x7 9090
 .text          0x00000000080d0830      0x47f mc_r2017b_dsx86_32_2.a(mc_7d099de7.lo86)
                0x00000000080d0be0                mc_SJYqDKFkTaQ8OxPd4_Kr52
 *fill*         0x00000000080d0caf        0x1 9090
 .text          0x00000000080d0cb0      0x7bb mc_r2017b_dsx86_32_2.a(mc_7eb21b39.lo86)
                0x00000000080d0cb0                mc_BJuEXiSuHOWFCMLaHSHwO_
                0x00000000080d1330                mc_abIAarmr8Ew9IVTjehCYM1
                0x00000000080d13d0                mc_V1eM5h3AXnIYwRoPylAkZ0
 *fill*         0x00000000080d146b        0x5 9090
 .text          0x00000000080d1470       0x97 mc_r2017b_dsx86_32_2.a(mc_81b5717e.lo86)
                0x00000000080d1470                mc_4NUC47j4aJxHBwMhDbTZV0
                0x00000000080d1490                mc_y1rJRp21YhZDKCX1eSUsS1
                0x00000000080d14b0                mc_LxZ4GcxGp0D4_SX8kV0GM_
                0x00000000080d14d0                mc_Fzj5zJ9NnkLsRO10o4n_t1
 *fill*         0x00000000080d1507        0x9 9090
 .text          0x00000000080d1510      0x520 mc_r2017b_dsx86_32_2.a(mc_89d597cf.lo86)
                0x00000000080d1510                mc_UIJXHcO0bfWk_WsGNAlpf0
 .text          0x00000000080d1a30     0x188a mc_r2017b_dsx86_32_2.a(mc_90b6aa0a.lo86)
                0x00000000080d1e20                mc_S33zPe8SknN9LcYhCb5wi0
                0x00000000080d1f30                mc_I9gOpdxdkDtFisWaAcueS2
                0x00000000080d1fe0                mc_8PNvEo7OREfPPqdHoj4v91
                0x00000000080d20b0                mc_fs9G14AuSjx6a7_fW1jDc2
                0x00000000080d20e0                mc_QrDTyksvE_fzwQPgWfWMo0
                0x00000000080d2110                mc_lya_e_YIJ3zOEAoJRDe0c1
                0x00000000080d2270                mc_UQyLykYxB6RfV3R5UafUE0
                0x00000000080d2340                mc_OvyDOAB_3upKwMOnK3EZV1
                0x00000000080d2530                mc_dCGqQVZgg5nte_jY9_Cd01
                0x00000000080d2640                mc_oA0IbcqlgIdVsQKAmscwa0
                0x00000000080d26d0                mc_zxKlKqk_QHLlgCOo_2ImC_
                0x00000000080d2700                mc_Tdqt4n_f38OzgBkReWoiP1
                0x00000000080d2710                mc_4gIlQP6_fYrNISbOZFNkP_
                0x00000000080d27b0                mc_83hy7P7oW7aRSDM7TcBsA2
                0x00000000080d2870                mc_PPbEGaGW9CGqvjemmEymj2
                0x00000000080d2af0                mc_SNiMSuxDEldsSjsl5k9Ry1
                0x00000000080d2cc0                mc_pPG5PIgnV_OuwvOl9CVnj_
                0x00000000080d3070                mc_qmyb9URRq9IoJgMqa3xih1
                0x00000000080d31c0                mc_LFaZy0_889U2Wsk9bwBoz1
 *fill*         0x00000000080d32ba        0x6 9090
 .text          0x00000000080d32c0      0x17b mc_r2017b_dsx86_32_2.a(mc_9ab7d9b0.lo86)
                0x00000000080d3390                mc_OL48aY8jC_rr0I80efya01
 *fill*         0x00000000080d343b        0x5 9090
 .text          0x00000000080d3440      0x30c mc_r2017b_dsx86_32_2.a(mc_9b6c1529.lo86)
                0x00000000080d3690                mc_get_csparse_rect_la
                0x00000000080d36a0                mc_vIJTcGDC8YKlnmvc5Nk210
 *fill*         0x00000000080d374c        0x4 9090
 .text          0x00000000080d3750       0x38 mc_r2017b_dsx86_32_2.a(mc_a2647600.lo86)
                0x00000000080d3750                mc_t_X32k0vqEkR0plJgGFe_1
 *fill*         0x00000000080d3788        0x8 9090
 .text          0x00000000080d3790      0x17b mc_r2017b_dsx86_32_2.a(mc_a26bab1a.lo86)
                0x00000000080d3860                mc_Xavb0madru2NAUNgFTYba_
 *fill*         0x00000000080d390b        0x5 9090
 .text          0x00000000080d3910      0x199 mc_r2017b_dsx86_32_2.a(mc_a3b90582.lo86)
                0x00000000080d39f0                mc_l5altUMKhzcgn29nXbhIi1
 *fill*         0x00000000080d3aa9        0x7 9090
 .text          0x00000000080d3ab0      0x159 mc_r2017b_dsx86_32_2.a(mc_a865d1dd.lo86)
                0x00000000080d3ab0                mc_QaMoA1QXcw6Zcx4O5Gmng2
                0x00000000080d3af0                mc_1lPI24aWavkvm2Pm4Thzr1
 *fill*         0x00000000080d3c09        0x7 9090
 .text          0x00000000080d3c10      0xaec mc_r2017b_dsx86_32_2.a(mc_acb3fad7.lo86)
                0x00000000080d4640                mc_BIV1Q2w3myHBDOtEHTPQS0
                0x00000000080d4650                mc_yyt1vnGcM854g6a5reYHN2
 *fill*         0x00000000080d46fc        0x4 9090
 .text          0x00000000080d4700      0x29d mc_r2017b_dsx86_32_2.a(mc_af0cc4c9.lo86)
                0x00000000080d4960                mc_Tl2msQum94U8SyO_whoMQ0
 *fill*         0x00000000080d499d        0x3 9090
 .text          0x00000000080d49a0      0x1ac mc_r2017b_dsx86_32_2.a(mc_b0de9cbc.lo86)
                0x00000000080d49a0                mc_aXUfSyY8L22Gta0NH_3eO0
 *fill*         0x00000000080d4b4c        0x4 9090
 .text          0x00000000080d4b50     0x102a mc_r2017b_dsx86_32_2.a(mc_b362c5eb.lo86)
                0x00000000080d4b50                mc_5S4htitdZYmKfEt8mi2cJ2
                0x00000000080d4c10                mc_voLsvdJ9A7h6y6ZLFojVa1
                0x00000000080d5680                mc_ZfSHMpFls2vf4zzhnPW46_
                0x00000000080d5710                mc_IzWBEIY3Mf5kBjHe_cgQs0
                0x00000000080d5820                mc_3JkmYzWRpFTFx1CdFx29k2
                0x00000000080d5900                mc_1FGOyapqPyCq7DIepCD1M_
 *fill*         0x00000000080d5b7a        0x6 9090
 .text          0x00000000080d5b80       0xbb mc_r2017b_dsx86_32_2.a(mc_b7b03d44.lo86)
                0x00000000080d5b80                mc_7TIwraGWa7_N5cUNFCHh5_
 *fill*         0x00000000080d5c3b        0x5 9090
 .text          0x00000000080d5c40       0x26 mc_r2017b_dsx86_32_2.a(mc_b96a0bad.lo86)
                0x00000000080d5c40                mc_Gc2NB6_It3aMHmJd87WtV0
 *fill*         0x00000000080d5c66        0xa 9090
 .text          0x00000000080d5c70       0xdb mc_r2017b_dsx86_32_2.a(mc_bb0520ee.lo86)
                0x00000000080d5c70                mc_Um0_uBe2nXcaztNK3no_11
 *fill*         0x00000000080d5d4b        0x5 9090
 .text          0x00000000080d5d50      0x33d mc_r2017b_dsx86_32_2.a(mc_bdbb9b78.lo86)
                0x00000000080d6050                mc_o_O3AXzlvmVYCVkAze6Ln1
 *fill*         0x00000000080d608d        0x3 9090
 .text          0x00000000080d6090       0xe3 mc_r2017b_dsx86_32_2.a(mc_c8d25d23.lo86)
                0x00000000080d6120                mc_DIUpfST__9_5sghsTXkhZ_
 *fill*         0x00000000080d6173        0xd 9090
 .text          0x00000000080d6180      0x108 mc_r2017b_dsx86_32_2.a(mc_d20085b7.lo86)
                0x00000000080d61f0                mc_25vUlwvTD87V9ZLY4dJ7n1
 *fill*         0x00000000080d6288        0x8 9090
 .text          0x00000000080d6290       0x3c mc_r2017b_dsx86_32_2.a(mc_d9d38185.lo86)
                0x00000000080d6290                mc_AIoYIG4w8ypWMKN8qFvtv0
 *fill*         0x00000000080d62cc        0x4 9090
 .text          0x00000000080d62d0      0x554 mc_r2017b_dsx86_32_2.a(mc_e7bc2f1a.lo86)
                0x00000000080d62d0                mc_Nf5R0F6K47SZgpezuH2h50
 *fill*         0x00000000080d6824        0xc 9090
 .text          0x00000000080d6830      0x114 mc_r2017b_dsx86_32_2.a(mc_e969ae87.lo86)
                0x00000000080d68d0                mc_8Q1OSIcMmHrMFF7V3ir3e0
 *fill*         0x00000000080d6944        0xc 9090
 .text          0x00000000080d6950      0x128 mc_r2017b_dsx86_32_2.a(mc_edbf543c.lo86)
                0x00000000080d6950                mc_44AOPmPSJ1MEAK8AmzgpZ2
 .text          0x00000000080d6a78        0x0 mc_r2017b_dsx86_32_2.a(mc_ee000fbe.lo86)
 *fill*         0x00000000080d6a78        0x8 9090
 .text          0x00000000080d6a80      0x1bf mc_r2017b_dsx86_32_2.a(mc_efdea3a7.lo86)
                0x00000000080d6b70                mc_msJ_DKVCQj8y5_UgtqNhu2
 *fill*         0x00000000080d6c3f        0x1 9090
 .text          0x00000000080d6c40      0x246 mc_r2017b_dsx86_32_2.a(mc_f3be157c.lo86)
                0x00000000080d6e50                mc_au9R6wbYTq7lvLXSjCKmr2
 *fill*         0x00000000080d6e86        0xa 9090
 .text          0x00000000080d6e90      0x115 mc_r2017b_dsx86_32_2.a(mc_fcb15a9b.lo86)
                0x00000000080d6f20                mc_cQv_ZCNfIS6i2SMCSWGyn1
 *fill*         0x00000000080d6fa5        0xb 9090
 .text          0x00000000080d6fb0      0x591 mc_r2017b_dsx86_32_2.a(mc_fd619d14.lo86)
                0x00000000080d7030                mc_dDoWH3jY0JZy2Utbj9hdC1
                0x00000000080d70a0                mc_jyMMGS25w7v9L5LqhaQtd_
 *fill*         0x00000000080d7541        0xf 9090
 .text          0x00000000080d7550       0x26 mc_r2017b_dsx86_32_2.a(mc_fd6341bb.lo86)
                0x00000000080d7550                mc_tAN_wuZwKMeN0_XzEkscr_
 *fill*         0x00000000080d7576        0xa 9090
 .text          0x00000000080d7580       0xf7 mc_r2017b_dsx86_32_2.a(mc_03b98f6f.lo86)
                0x00000000080d7580                mc_5CcrZ2CLOZnOOkryH5CHr0
 *fill*         0x00000000080d7677        0x9 9090
 .text          0x00000000080d7680      0x57d mc_r2017b_dsx86_32_2.a(mc_0d6fd085.lo86)
                0x00000000080d7680                mc_HEOWeGj1KlhDbpniMXXWF1
 *fill*         0x00000000080d7bfd        0x3 9090
 .text          0x00000000080d7c00      0x151 mc_r2017b_dsx86_32_2.a(mc_0ed73c49.lo86)
                0x00000000080d7c00                mc_798bn9wMrS5vtrBIqDwMf0
 *fill*         0x00000000080d7d51        0xf 9090
 .text          0x00000000080d7d60      0x297 mc_r2017b_dsx86_32_2.a(mc_11086079.lo86)
                0x00000000080d7d60                mc_LEkjn0HScoulloiZuU3yi_
                0x00000000080d7e30                mc_7_R4McQBwppLSGlfrN9ts1
                0x00000000080d7ea0                mc_uvUOg06hpCr7h7LKTqMWz_
 *fill*         0x00000000080d7ff7        0x9 9090
 .text          0x00000000080d8000      0x6f4 mc_r2017b_dsx86_32_2.a(mc_15d12d95.lo86)
                0x00000000080d8000                mc_8lzqkdoXfarQqLfjfrEKU_
                0x00000000080d8110                mc_g0skBeSxVf5qP1OPh14mS0
                0x00000000080d81e0                mc_vVHvSM_NFYPGyKpyBY_yU2
                0x00000000080d8230                mc_ibXoOPiOM7SU6MRFBjZnr2
                0x00000000080d82d0                mc_tw08gA1Pc97CibZ9SYzgn1
                0x00000000080d8330                mc_TzEOuE_RsXz1qLP8uheSb0
                0x00000000080d8410                mc_ASIqSNhgYIFDl8A_OZ3Nj_
                0x00000000080d8460                mc_JlRaY_nJltp8q1aLN7_Y62
                0x00000000080d84c0                mc_G1TRn4rFaVBuNHVKT5lyb_
                0x00000000080d8530                mc_Blbk0IcpagUPtYc6xH_OV0
                0x00000000080d8650                mc_kFBpe3_gj77EZFb8qaqZK0
 *fill*         0x00000000080d86f4        0xc 9090
 .text          0x00000000080d8700     0x116c mc_r2017b_dsx86_32_2.a(mc_2cdc96b4.lo86)
                0x00000000080d8710                mc_PEkGs_0ndRJaos_yJJtFu0
 *fill*         0x00000000080d986c        0x4 9090
 .text          0x00000000080d9870       0x77 mc_r2017b_dsx86_32_2.a(mc_32dc008a.lo86)
                0x00000000080d9870                mc_velqwEVC8fLQCaCDqKcxE1
 *fill*         0x00000000080d98e7        0x9 9090
 .text          0x00000000080d98f0      0x6cf mc_r2017b_dsx86_32_2.a(mc_3e66abdf.lo86)
                0x00000000080d9910                mc_KeWpRWVqC8tjvlCRsE1DV1
 *fill*         0x00000000080d9fbf        0x1 9090
 .text          0x00000000080d9fc0      0x25c mc_r2017b_dsx86_32_2.a(mc_51d4094e.lo86)
                0x00000000080d9fc0                mc_GO6x_Rqz9PsT5rw6AHrHt_
 *fill*         0x00000000080da21c        0x4 9090
 .text          0x00000000080da220      0x13d mc_r2017b_dsx86_32_2.a(mc_52688a58.lo86)
                0x00000000080da220                mc_oO4saFSDxaOgIQQDolzdI2
 *fill*         0x00000000080da35d        0x3 9090
 .text          0x00000000080da360      0x184 mc_r2017b_dsx86_32_2.a(mc_5d65cd86.lo86)
                0x00000000080da400                mc_DYHqOwnpTvvDXsUX3Ci520
 *fill*         0x00000000080da4e4        0xc 9090
 .text          0x00000000080da4f0      0x3bf mc_r2017b_dsx86_32_2.a(mc_67da200d.lo86)
                0x00000000080da4f0                mc_7nG9lUdK3T_me5heU563C0
 *fill*         0x00000000080da8af        0x1 9090
 .text          0x00000000080da8b0      0x2c8 mc_r2017b_dsx86_32_2.a(mc_6fb1c336.lo86)
                0x00000000080da8b0                mc_MnSbKBBbLve56h73H6jVJ_
 *fill*         0x00000000080dab78        0x8 9090
 .text          0x00000000080dab80      0x146 mc_r2017b_dsx86_32_2.a(mc_7a613aec.lo86)
                0x00000000080dab80                mc_2VhAsaQm8j1BqRig7Y94l1
 *fill*         0x00000000080dacc6        0xa 9090
 .text          0x00000000080dacd0      0x18f mc_r2017b_dsx86_32_2.a(mc_7cd58f0b.lo86)
                0x00000000080dacd0                mc_ukUJI5gik_YiLRv4PQY4_2
 *fill*         0x00000000080dae5f        0x1 9090
 .text          0x00000000080dae60       0xce mc_r2017b_dsx86_32_2.a(mc_7cdbe436.lo86)
                0x00000000080dae60                mc_6wzDapiXh25sZAQnDu37x_
 *fill*         0x00000000080daf2e        0x2 9090
 .text          0x00000000080daf30      0x10b mc_r2017b_dsx86_32_2.a(mc_870ec75e.lo86)
                0x00000000080daf30                mc_i63xoebOrVKbN3ULxVfP_2
 *fill*         0x00000000080db03b        0x5 9090
 .text          0x00000000080db040       0xf2 mc_r2017b_dsx86_32_2.a(mc_9b6376d1.lo86)
                0x00000000080db0c0                mc_djxwwgYfpBI455bO6AUGz_
 *fill*         0x00000000080db132        0xe 9090
 .text          0x00000000080db140       0x80 mc_r2017b_dsx86_32_2.a(mc_dbbb14d2.lo86)
                0x00000000080db140                mc_IlEmqSHDAWyAGgiaxQzF72
 .text          0x00000000080db1c0      0x11d mc_r2017b_dsx86_32_2.a(mc_dcdddfae.lo86)
                0x00000000080db1c0                mc_K6uvj2uJ5v60jMJkGDezJ1
 *fill*         0x00000000080db2dd        0x3 9090
 .text          0x00000000080db2e0       0x90 mc_r2017b_dsx86_32_2.a(mc_debb448f.lo86)
                0x00000000080db2e0                mc_fLYGXm9ZEhPX6ig3Hkb8n0
 .text          0x00000000080db370      0xa91 mc_r2017b_dsx86_32_2.a(mc_220ba961.lo86)
                0x00000000080db6c0                mc_uFudiZmchL_QLLrSuWv_w1
 *fill*         0x00000000080dbe01        0xf 9090
 .text          0x00000000080dbe10      0x37e ex_r2017b_dsx86_32_2.a(ex_04d5441d.lo86)
                0x00000000080dbe10                tlu2_1d_linear_nearest_process
                0x00000000080dbe80                tlu2_1d_linear_linear_process
                0x00000000080dbef0                tlu2_1d_linear_nearest_value
                0x00000000080dbfa0                tlu2_1d_linear_linear_value
                0x00000000080dc050                tlu2_1d_linear_nearest_derivatives
                0x00000000080dc0f0                tlu2_1d_linear_linear_derivatives
 *fill*         0x00000000080dc18e        0x2 9090
 .text          0x00000000080dc190      0xc62 ex_r2017b_dsx86_32_2.a(ex_18b4440a.lo86)
                0x00000000080dc190                ex_XgFqE_qWosDa601lsTn6b1
                0x00000000080dc1d0                ex_58tHK_FJLrTVg5pTR2KLX0
                0x00000000080dc2f0                ex_kxquG9pkEjt4fXtMQOsqG2
                0x00000000080dc380                ex_nC4jUddYFsKRLzFkVBm3G0
                0x00000000080dc570                ex_p_64ouPbD9bddOkoAZOpZ1
                0x00000000080dc8b0                ex_5NKaAbmUyQr1tleeDl4Vc2
 *fill*         0x00000000080dcdf2        0xe 9090
 .text          0x00000000080dce00      0x31f ex_r2017b_dsx86_32_2.a(ex_8a6fc761.lo86)
                0x00000000080dce00                ex_ia6STLGqo9aFeiYN0gcmB_
 *fill*         0x00000000080dd11f        0x1 9090
 .text          0x00000000080dd120      0x598 pm_r2017b_dsx86_32_2.a(pm_09bc42e2.lo86)
                0x00000000080dd120                pm_FBD_ZCGRyF9Zix4mvl6Ip0
                0x00000000080dd1b0                pm_create_sparsity_pattern
                0x00000000080dd260                pm_3YYVuJb7mmfC_9_znq5yH2
                0x00000000080dd2b0                pm_F9dzGbF9bw2QlZyj3V1Gf_
                0x00000000080dd310                pm_9oMk0xBPD28NQC6egedGY2
                0x00000000080dd410                pm_s_tA_vyom56bxaGbqlGcb0
                0x00000000080dd460                pm_06dTzOwkhN7oGBM_7J2hK1
                0x00000000080dd4b0                pm_OLpBo6MxIVPIjv0_z_qCc2
                0x00000000080dd570                pm_8BokEnlj2bsehUZ6VBVqc0
                0x00000000080dd600                pm_LPeaDYoYWpCMrX0FHDZrj2
                0x00000000080dd660                pm_Fd_reSzeOBuDPZtoIWlnj0
 *fill*         0x00000000080dd6b8        0x8 9090
 .text          0x00000000080dd6c0      0x379 pm_r2017b_dsx86_32_2.a(pm_14098e54.lo86)
                0x00000000080dd6c0                pm_nz2UGYq4cnG1apCgKensi1
                0x00000000080dd700                pm_kXYSn24Zby7CBHFJTWVAL_
                0x00000000080dd770                pm_7qv2N86L_Nx58YfedYAKB2
                0x00000000080dd7b0                pm_uHZzpO3dV_gBTCFm801lW0
                0x00000000080dd7d0                pm_MGbAo0b_Pvg7QU4YyM3B02
                0x00000000080dd810                pm_SMY9vTgq0jMJs5_4peCEb2
                0x00000000080dd8c0                pm_4Z81QuXMmjeQwuPgWZ5tk2
                0x00000000080dd930                pm_RBkGG4mV2eXeUxWqZrZ_D0
                0x00000000080dd970                pm_Ct3OT7r9ARKw_pJqHPLDS2
                0x00000000080dd9c0                pm_sYk4ZLEaO8wF7NdpQZXqg_
                0x00000000080dda00                pm_FcuhGEI4_hbnVFe3jdkcL2
 *fill*         0x00000000080dda39        0x7 9090
 .text          0x00000000080dda40      0x39c pm_r2017b_dsx86_32_2.a(pm_26dc3230.lo86)
                0x00000000080dda40                pmf_get_eps
                0x00000000080dda50                pmf_get_real_max
                0x00000000080dda60                pmf_get_real_min
                0x00000000080dda70                pmf_get_pi
                0x00000000080dda80                pmf_is_nan
                0x00000000080dda90                pmf_is_inf
                0x00000000080ddab0                pmf_get_inf
                0x00000000080ddac0                pmf_vsnprintf_message
                0x00000000080ddae0                pmf_snprintf_message
                0x00000000080ddb00                pm_4VpVQvq3Tw1GMWHC_vlFm_
                0x00000000080ddb10                pmf_asin
                0x00000000080ddb40                pmf_acos
                0x00000000080ddb70                pmf_log
                0x00000000080ddba0                pmf_log10
                0x00000000080ddbd0                pmf_pow
                0x00000000080ddc90                pmf_sqrt
                0x00000000080ddd00                pmf_vprintf
                0x00000000080ddd10                pmf_printf
                0x00000000080ddd30                pmf_warning
                0x00000000080ddd70                pmf_preformatted_warning
                0x00000000080ddda0                pmf_vsnprintf
                0x00000000080dddc0                pmf_snprintf
 *fill*         0x00000000080ddddc        0x4 9090
 .text          0x00000000080ddde0       0x36 pm_r2017b_dsx86_32_2.a(pm_4fd5f5b9.lo86)
                0x00000000080dde10                pm_default_allocator
 *fill*         0x00000000080dde16        0xa 9090
 .text          0x00000000080dde20      0x7d1 pm_r2017b_dsx86_32_2.a(pm_fed8c2c9.lo86)
                0x00000000080dde20                pm_rv_equals_rv
                0x00000000080dde50                pm_U1h5Sl4yTxoF_YCvN9hBa1
                0x00000000080dde80                pm_TnPSeUZeYw5Wc8bvD8sl80
                0x00000000080ddeb0                pm_fKS8kuV7G_WhlO7CcdVnc1
                0x00000000080ddee0                pm___43lXp90F4bzSkAXqYfT1
                0x00000000080ddf20                pm_XDtBnYqrul1zO7ccbIlmV2
                0x00000000080ddf60                pm_9IegWBFmNW3wA_0fRmj9m2
                0x00000000080ddfa0                pm_create_real_vector_fields
                0x00000000080ddff0                pm_create_real_vector
                0x00000000080de060                pm_ZdJ6KB36NX_7JjULh6fi72
                0x00000000080de0f0                pm_MgDXCYHfYCiNYyF5Ik7dF2
                0x00000000080de120                pm_destroy_real_vector
                0x00000000080de160                pm_create_int_vector_fields
                0x00000000080de1b0                pm_create_int_vector
                0x00000000080de220                pm_pLia5sG_NxTeQbxzYtpXx_
                0x00000000080de2b0                pm_Rdk2CZ3CCj5T0d2uDHUZ20
                0x00000000080de2e0                pm_destroy_int_vector
                0x00000000080de320                pm_create_bool_vector_fields
                0x00000000080de370                pm_YZQHxvtiv5rBT_iBt45HQ_
                0x00000000080de3e0                pm_SK8Vck8jU45BIyJDK11DV_
                0x00000000080de410                pm_qv4zOCjtiVRVC86eoqx06_
                0x00000000080de450                pm_Or6MViYTj4_1rM_3pn1UZ0
                0x00000000080de4d0                pm_create_char_vector_fields
                0x00000000080de520                pm_VJ_YkZBOp_Ry9yis8LShD1
                0x00000000080de590                pm_cn_kUNHZ0hjihWokUKapj_
                0x00000000080de5c0                pm_ea51z6lAUjevRfjOCHL37_
 *fill*         0x00000000080de5f1        0x3 9090
 .text          0x00000000080de5f4        0xb C:\Program Files\dSPACE RCPHIL 2018-A\SCALEXIO\Lib\libm_fastpow.a(w_pow.o)
                0x00000000080de5f4                pow
 *fill*         0x00000000080de5ff        0x1 9090
 .text          0x00000000080de600      0x75d C:\Program Files\dSPACE RCPHIL 2018-A\SCALEXIO\Lib\libm_fastpow.a(e_pow.o)
                0x00000000080de600                __ieee754_pow
 *fill*         0x00000000080ded5d        0x3 9090
 .text          0x00000000080ded60       0x43 c:/programdata/dspace/071346ea-bffa-4465-9551-2e48edf35320/compiler/qnx650_520/host/win32/x86/usr/bin/../lib/gcc/i486-pc-nto-qnx6.5.0/5.2.0/crtend.o
 *fill*         0x00000000080deda3        0x1 9090
 .text          0x00000000080deda4        0x0 C:\ProgramData\dSPACE\071346ea-bffa-4465-9551-2e48edf35320\Compiler\QNX650_520\target\qnx6/x86/lib/crtn.o
 *(.gnu.warning)

.fini           0x00000000080deda4        0x8
 *(SORT(.fini))
 .fini          0x00000000080deda4        0x0 C:\ProgramData\dSPACE\071346ea-bffa-4465-9551-2e48edf35320\Compiler\QNX650_520\target\qnx6/x86/lib/crti.o
                0x00000000080deda4                _fini
 .fini          0x00000000080deda4        0x5 c:/programdata/dspace/071346ea-bffa-4465-9551-2e48edf35320/compiler/qnx650_520/host/win32/x86/usr/bin/../lib/gcc/i486-pc-nto-qnx6.5.0/5.2.0/crtbegin.o
 .fini          0x00000000080deda9        0x3 C:\ProgramData\dSPACE\071346ea-bffa-4465-9551-2e48edf35320\Compiler\QNX650_520\target\qnx6/x86/lib/crtn.o
                [!provide]                        PROVIDE (__etext, .)
                [!provide]                        PROVIDE (_etext, .)
                [!provide]                        PROVIDE (etext, .)

.rodata         0x00000000080dedc0    0x26300
 *(.rodata .rodata.* .gnu.linkonce.r.*)
 .rodata.str1.4
                0x00000000080dedc0       0x65 dssimengine_accesspoint.o86
 *fill*         0x00000000080dee25       0x1b 
 .rodata        0x00000000080dee40      0x13c dssimengine_accesspoint.o86
 .rodata._ZTS18DsCApplicationMain
                0x00000000080def7c       0x15 dssimengine_main.o86
                0x00000000080def7c                _ZTS18DsCApplicationMain
 *fill*         0x00000000080def91        0x3 
 .rodata._ZTI18DsCApplicationMain
                0x00000000080def94        0xc dssimengine_main.o86
                0x00000000080def94                _ZTI18DsCApplicationMain
 .rodata._ZTV18DsCApplicationMain
                0x00000000080defa0       0x28 dssimengine_main.o86
                0x00000000080defa0                _ZTV18DsCApplicationMain
 .rodata.str1.1
                0x00000000080defc8       0x25 dssimengine_main.o86
 .rodata.str1.1
                0x00000000080defed       0x25 rtosal_task.o86
 *fill*         0x00000000080df012        0x2 
 .rodata.str1.4
                0x00000000080df014       0xc6 rtosal_task.o86
 *fill*         0x00000000080df0da        0x6 
 .rodata        0x00000000080df0e0       0x46 rtosal_task.o86
 *fill*         0x00000000080df126        0x2 
 .rodata._ZTS24DsCRtosAlPeriodic_Task_2
                0x00000000080df128       0x1b rtosal_task.o86
                0x00000000080df128                _ZTS24DsCRtosAlPeriodic_Task_2
 *fill*         0x00000000080df143        0x1 
 .rodata._ZTI24DsCRtosAlPeriodic_Task_2
                0x00000000080df144        0xc rtosal_task.o86
                0x00000000080df144                _ZTI24DsCRtosAlPeriodic_Task_2
 .rodata._ZTV24DsCRtosAlPeriodic_Task_2
                0x00000000080df150       0x18 rtosal_task.o86
                0x00000000080df150                _ZTV24DsCRtosAlPeriodic_Task_2
 .rodata.cst4   0x00000000080df168        0x4 rtosal_taskap.o86
 *fill*         0x00000000080df16c        0x4 
 .rodata.cst8   0x00000000080df170        0x8 rtosal_taskap.o86
 .rodata.str1.4
                0x00000000080df178       0x62 rtosal_simengineap.o86
 .rodata.str1.1
                0x00000000080df1da       0x36 rtosal_simengineap.o86
 .rodata        0x00000000080df210        0xe rtosal_simengineap.o86
 *fill*         0x00000000080df21e        0x2 
 .rodata.cst8   0x00000000080df220        0x8 rtosal_simengineap.o86
 .rodata.str1.1
                0x00000000080df228        0xe IOCode_Data.o86
 .rodata.str1.1
                0x00000000080df236       0x14 STLA_MECHANICAL.a(STLA_MECHANICAL_dsrtmdlfcn.lo86)
 *fill*         0x00000000080df24a        0x2 
 .rodata.str1.4
                0x00000000080df24c       0x2e STLA_MECHANICAL.a(STLA_MECHANICAL_dsrtmdlfcn.lo86)
 *fill*         0x00000000080df27a        0x2 
 .rodata        0x00000000080df27c        0x4 STLA_MECHANICAL.a(STLA_MECHANICAL.lo86)
                0x00000000080df27c                STLA_MECHANICAL_M
 .rodata.str1.4
                0x00000000080df280       0x68 Punch_mechanical_B_sample_v3_6_cal_v2_C_rtwlib.lib(Punch_mechanical_B_sample_v3_6_cal_v2_C.lo86)
 .rodata.cst8   0x00000000080df2e8       0x18 Punch_mechanical_B_sample_v3_6_cal_v2_C_rtwlib.lib(Punch_mechanical_B_sample_v3_6_cal_v2_C.lo86)
                                         0x28 (size before relaxing)
 .rodata.cst16  0x00000000080df300       0x20 Punch_mechanical_B_sample_v3_6_cal_v2_C_rtwlib.lib(Punch_mechanical_B_sample_v3_6_cal_v2_C.lo86)
 .rodata.str1.4
                0x00000000080df320       0x66 Punch_mechanical_B_sample_v3_6_cal_v2_C_rtwlib.lib(Punch_mechanical_B_sample_v3_6_cal_v2_C_9a4b384b_1_gateway.lo86)
                                         0xce (size before relaxing)
 *fill*         0x00000000080df386       0x1a 
 .rodata        0x00000000080df3a0       0x7c Punch_mechanical_B_sample_v3_6_cal_v2_C_rtwlib.lib(Punch_mechanical_B_sample_v3_6_cal_v2_C_9a4b384b_1_gateway.lo86)
 *fill*         0x00000000080df41c        0x4 
 .rodata.cst8   0x00000000080df420       0x10 Punch_mechanical_B_sample_v3_6_cal_v2_C_rtwlib.lib(Punch_mechanical_B_sample_v3_6_cal_v2_C_9a4b384b_1_gateway.lo86)
                                         0x18 (size before relaxing)
 .rodata.str1.4
                0x00000000080df430    0x23f54 Punch_mechanical_B_sample_v3_6_cal_v2_C_rtwlib.lib(Punch_mechanical_B_sample_v3_6_cal_v2_C_9a4b384b_1_ds.lo86)
 .rodata.str1.1
                0x0000000008103384      0x2fa Punch_mechanical_B_sample_v3_6_cal_v2_C_rtwlib.lib(Punch_mechanical_B_sample_v3_6_cal_v2_C_9a4b384b_1_ds.lo86)
                                        0x301 (size before relaxing)
 *fill*         0x000000000810367e        0x2 
 .rodata.cst8   0x0000000008103680       0x38 Punch_mechanical_B_sample_v3_6_cal_v2_C_rtwlib.lib(Punch_mechanical_B_sample_v3_6_cal_v2_C_9a4b384b_1_ds.lo86)
                                         0x40 (size before relaxing)
 .rodata.cst16  0x00000000081036b8       0x10 Punch_mechanical_B_sample_v3_6_cal_v2_C_rtwlib.lib(Punch_mechanical_B_sample_v3_6_cal_v2_C_9a4b384b_1_ds_assert.lo86)
 .rodata.cst8   0x00000000081036b8        0x8 Punch_mechanical_B_sample_v3_6_cal_v2_C_rtwlib.lib(Punch_mechanical_B_sample_v3_6_cal_v2_C_9a4b384b_1_ds_assert.lo86)
 .rodata.cst8   0x00000000081036c0      0x220 Punch_mechanical_B_sample_v3_6_cal_v2_C_rtwlib.lib(Punch_mechanical_B_sample_v3_6_cal_v2_C_9a4b384b_1_ds_f.lo86)
                                        0x240 (size before relaxing)
 .rodata.cst16  0x00000000081038e0       0x20 Punch_mechanical_B_sample_v3_6_cal_v2_C_rtwlib.lib(Punch_mechanical_B_sample_v3_6_cal_v2_C_9a4b384b_1_ds_f.lo86)
 .rodata.cst8   0x00000000081038e0        0x8 Punch_mechanical_B_sample_v3_6_cal_v2_C_rtwlib.lib(Punch_mechanical_B_sample_v3_6_cal_v2_C_9a4b384b_1_ds_update_i.lo86)
                                         0x38 (size before relaxing)
 .rodata.cst16  0x00000000081038e8       0x10 Punch_mechanical_B_sample_v3_6_cal_v2_C_rtwlib.lib(Punch_mechanical_B_sample_v3_6_cal_v2_C_9a4b384b_1_ds_update_i.lo86)
 .rodata.cst8   0x00000000081038e8       0x70 Punch_mechanical_B_sample_v3_6_cal_v2_C_rtwlib.lib(Punch_mechanical_B_sample_v3_6_cal_v2_C_9a4b384b_1_ds_dxf.lo86)
                                        0x1b0 (size before relaxing)
 .rodata.cst16  0x0000000008103958       0x20 Punch_mechanical_B_sample_v3_6_cal_v2_C_rtwlib.lib(Punch_mechanical_B_sample_v3_6_cal_v2_C_9a4b384b_1_ds_dxf.lo86)
 .rodata.cst8   0x0000000008103958       0x18 Punch_mechanical_B_sample_v3_6_cal_v2_C_rtwlib.lib(Punch_mechanical_B_sample_v3_6_cal_v2_C_9a4b384b_1_ds_duf.lo86)
                                         0x28 (size before relaxing)
 .rodata.cst8   0x0000000008103970      0x168 Punch_mechanical_B_sample_v3_6_cal_v2_C_rtwlib.lib(Punch_mechanical_B_sample_v3_6_cal_v2_C_9a4b384b_1_ds_obs_act.lo86)
                                        0x1c0 (size before relaxing)
 .rodata.cst16  0x0000000008103ad8       0x10 Punch_mechanical_B_sample_v3_6_cal_v2_C_rtwlib.lib(Punch_mechanical_B_sample_v3_6_cal_v2_C_9a4b384b_1_ds_obs_act.lo86)
 .rodata.cst8   0x0000000008103ad8       0x68 Punch_mechanical_B_sample_v3_6_cal_v2_C_rtwlib.lib(Punch_mechanical_B_sample_v3_6_cal_v2_C_9a4b384b_1_ds_a.lo86)
                                        0x100 (size before relaxing)
 .rodata.cst8   0x0000000008103b40       0x10 Punch_mechanical_B_sample_v3_6_cal_v2_C_rtwlib.lib(Punch_mechanical_B_sample_v3_6_cal_v2_C_9a4b384b_1_ds_obs_exp.lo86)
                                         0x28 (size before relaxing)
 .rodata.cst8   0x0000000008103b50       0xe0 Punch_mechanical_B_sample_v3_6_cal_v2_C_rtwlib.lib(Punch_mechanical_B_sample_v3_6_cal_v2_C_9a4b384b_1_ds_qx.lo86)
                                        0x118 (size before relaxing)
 .rodata.cst8   0x0000000008103c30       0x28 Punch_mechanical_B_sample_v3_6_cal_v2_C_rtwlib.lib(Punch_mechanical_B_sample_v3_6_cal_v2_C_9a4b384b_1_ds_ic.lo86)
 .rodata.cst8   0x0000000008103c30      0x1c0 Punch_mechanical_B_sample_v3_6_cal_v2_C_rtwlib.lib(Punch_mechanical_B_sample_v3_6_cal_v2_C_9a4b384b_1_ds_log.lo86)
 .rodata.cst16  0x0000000008103c30       0x10 Punch_mechanical_B_sample_v3_6_cal_v2_C_rtwlib.lib(Punch_mechanical_B_sample_v3_6_cal_v2_C_9a4b384b_1_ds_log.lo86)
 .rodata.cst8   0x0000000008103c30       0xc8 Punch_mechanical_B_sample_v3_6_cal_v2_C_rtwlib.lib(Punch_mechanical_B_sample_v3_6_cal_v2_C_9a4b384b_1_ds_m.lo86)
                                         0xd8 (size before relaxing)
 .rodata.cst8   0x0000000008103cf8       0x60 Punch_mechanical_B_sample_v3_6_cal_v2_C_rtwlib.lib(Punch_mechanical_B_sample_v3_6_cal_v2_C_9a4b384b_1_ds_mode.lo86)
                                        0x148 (size before relaxing)
 .rodata.cst16  0x0000000008103d58       0x20 Punch_mechanical_B_sample_v3_6_cal_v2_C_rtwlib.lib(Punch_mechanical_B_sample_v3_6_cal_v2_C_9a4b384b_1_ds_mode.lo86)
 .rodata.cst8   0x0000000008103d58      0x1c0 Punch_mechanical_B_sample_v3_6_cal_v2_C_rtwlib.lib(Punch_mechanical_B_sample_v3_6_cal_v2_C_9a4b384b_1_ds_obs_all.lo86)
 .rodata.cst16  0x0000000008103d58       0x10 Punch_mechanical_B_sample_v3_6_cal_v2_C_rtwlib.lib(Punch_mechanical_B_sample_v3_6_cal_v2_C_9a4b384b_1_ds_obs_all.lo86)
 .rodata.cst8   0x0000000008103d58        0x8 Punch_mechanical_B_sample_v3_6_cal_v2_C_rtwlib.lib(Punch_mechanical_B_sample_v3_6_cal_v2_C_9a4b384b_1_ds_var_tol.lo86)
 .rodata.cst8   0x0000000008103d58        0x8 Punch_mechanical_B_sample_v3_6_cal_v2_C_rtwlib.lib(Punch_mechanical_B_sample_v3_6_cal_v2_C_9a4b384b_1_ds_eq_tol.lo86)
 .rodata.cst8   0x0000000008103d58       0x58 Punch_mechanical_B_sample_v3_6_cal_v2_C_rtwlib.lib(Punch_mechanical_B_sample_v3_6_cal_v2_C_9a4b384b_1_ds_y.lo86)
 .rodata.cst16  0x0000000008103d58       0x10 Punch_mechanical_B_sample_v3_6_cal_v2_C_rtwlib.lib(Punch_mechanical_B_sample_v3_6_cal_v2_C_9a4b384b_1_ds_y.lo86)
 .rodata.cst8   0x0000000008103d58       0x68 Punch_mechanical_B_sample_v3_6_cal_v2_C_rtwlib.lib(Punch_mechanical_B_sample_v3_6_cal_v2_C_9a4b384b_1_ds_dxy.lo86)
 .rodata.cst8   0x0000000008103d58      0x148 Punch_mechanical_B_sample_v3_6_cal_v2_C_rtwlib.lib(Punch_mechanical_B_sample_v3_6_cal_v2_C_9a4b384b_1_ds_zc.lo86)
 .rodata.cst16  0x0000000008103d58       0x20 Punch_mechanical_B_sample_v3_6_cal_v2_C_rtwlib.lib(Punch_mechanical_B_sample_v3_6_cal_v2_C_9a4b384b_1_ds_zc.lo86)
 .rodata.cst16  0x0000000008103d58       0x10 rtwshared.lib(rt_lu_real.lo86)
 .rodata.cst8   0x0000000008103d58        0x8 rtwshared.lib(rt_lu_real.lo86)
 .rodata.cst8   0x0000000008103d58       0x10 rtwshared.lib(rtGetInf.lo86)
 .rodata.cst4   0x0000000008103d68        0x8 rtwshared.lib(rtGetInf.lo86)
 .rodata.cst8   0x0000000008103d70        0x8 rtwshared.lib(rtGetNaN.lo86)
 .rodata.cst4   0x0000000008103d78        0x4 rtwshared.lib(rtGetNaN.lo86)
 .rodata.str1.1
                0x0000000008103d7c        0x7 ssc_sli_r2017b_dsx86_32_2.a(ssc_sli_51dbd3b5.lo86)
 *fill*         0x0000000008103d83        0x1 
 .rodata.str1.4
                0x0000000008103d84       0x6b ssc_sli_r2017b_dsx86_32_2.a(ssc_sli_51dbd3b5.lo86)
 .rodata.str1.1
                0x0000000008103def        0x6 ssc_sli_r2017b_dsx86_32_2.a(ssc_sli_62d81790.lo86)
 *fill*         0x0000000008103df5        0x3 
 .rodata.str1.4
                0x0000000008103df8      0x1db ssc_sli_r2017b_dsx86_32_2.a(ssc_sli_62d81790.lo86)
 .rodata.cst16  0x0000000008103fd3       0x10 ssc_core_r2017b_dsx86_32_2.a(ssc_core_67d1f118.lo86)
 *fill*         0x0000000008103fd3        0x5 
 .rodata.cst8   0x0000000008103fd8       0x18 ssc_core_r2017b_dsx86_32_2.a(ssc_core_67d1f118.lo86)
                                         0x38 (size before relaxing)
 .rodata.str1.1
                0x0000000008103ff0       0x2d ssc_core_r2017b_dsx86_32_2.a(ssc_core_6dd833f3.lo86)
 .rodata.cst16  0x000000000810401d       0x10 ssc_core_r2017b_dsx86_32_2.a(ssc_core_8569edc5.lo86)
 .rodata.cst8   0x000000000810401d        0x8 ssc_core_r2017b_dsx86_32_2.a(ssc_core_abd5e7b4.lo86)
 *fill*         0x000000000810401d        0x3 
 .rodata.str1.4
                0x0000000008104020       0x30 ssc_core_r2017b_dsx86_32_2.a(ssc_core_acb64294.lo86)
 .rodata.str1.1
                0x0000000008104050       0x34 ssc_core_r2017b_dsx86_32_2.a(ssc_core_acb64294.lo86)
                                         0x37 (size before relaxing)
 .rodata.cst8   0x0000000008104084        0x8 ssc_core_r2017b_dsx86_32_2.a(ssc_core_bb0b2992.lo86)
 .rodata.cst16  0x0000000008104084       0x10 ssc_core_r2017b_dsx86_32_2.a(ssc_core_c607b660.lo86)
 .rodata.cst8   0x0000000008104084       0x28 ssc_core_r2017b_dsx86_32_2.a(ssc_core_c8d83e88.lo86)
 .rodata.cst8   0x0000000008104084        0x8 ssc_core_r2017b_dsx86_32_2.a(ssc_core_cc067f58.lo86)
 *fill*         0x0000000008104084        0xc 
 .rodata.cst16  0x0000000008104090       0x10 ssc_core_r2017b_dsx86_32_2.a(ssc_core_cc067f58.lo86)
 .rodata.cst8   0x00000000081040a0        0x8 ssc_core_r2017b_dsx86_32_2.a(ssc_core_d3d34d7c.lo86)
 .rodata.str1.4
                0x00000000081040a8      0x105 ssc_core_r2017b_dsx86_32_2.a(ssc_core_e400c1c2.lo86)
 .rodata.str1.1
                0x00000000081041ad       0x8d ssc_core_r2017b_dsx86_32_2.a(ssc_core_e400c1c2.lo86)
                                         0x90 (size before relaxing)
 *fill*         0x000000000810423a        0x2 
 .rodata.str1.4
                0x000000000810423c      0xc35 ssc_core_r2017b_dsx86_32_2.a(ssc_core_ee000fbe.lo86)
 .rodata.str1.1
                0x0000000008104e71       0x1c ssc_core_r2017b_dsx86_32_2.a(ssc_core_ee000fbe.lo86)
                                         0x1f (size before relaxing)
 .rodata.str1.1
                0x0000000008104e8d       0x1b ssc_core_r2017b_dsx86_32_2.a(ssc_core_ee01086d.lo86)
                                         0x1d (size before relaxing)
 .rodata.cst8   0x0000000008104ea8        0x8 ssc_core_r2017b_dsx86_32_2.a(ssc_core_ee01086d.lo86)
 .rodata.cst8   0x0000000008104ea8        0x8 ssc_core_r2017b_dsx86_32_2.a(ssc_core_f9b6dbed.lo86)
 .rodata.cst8   0x0000000008104ea8       0x18 ssc_core_r2017b_dsx86_32_2.a(ssc_core_06ba68a6.lo86)
 .rodata.cst16  0x0000000008104ea8       0x10 ssc_core_r2017b_dsx86_32_2.a(ssc_core_06ba68a6.lo86)
 .rodata.cst8   0x0000000008104ea8        0x8 ssc_core_r2017b_dsx86_32_2.a(ssc_core_40dfdbdc.lo86)
 .rodata.cst8   0x0000000008104ea8        0x8 ssc_core_r2017b_dsx86_32_2.a(ssc_core_4e03e39d.lo86)
 .rodata.cst8   0x0000000008104ea8       0x18 ssc_core_r2017b_dsx86_32_2.a(ssc_core_59b034b8.lo86)
 .rodata.cst16  0x0000000008104ea8       0x20 ssc_core_r2017b_dsx86_32_2.a(ssc_core_59b034b8.lo86)
 .rodata.cst8   0x0000000008104ea8        0x8 ssc_core_r2017b_dsx86_32_2.a(ssc_core_5d6ba758.lo86)
 .rodata.cst8   0x0000000008104ea8       0x38 ssc_core_r2017b_dsx86_32_2.a(ssc_core_856738f2.lo86)
                                         0x60 (size before relaxing)
 .rodata.cst16  0x0000000008104ee0       0x20 ssc_core_r2017b_dsx86_32_2.a(ssc_core_856738f2.lo86)
 .rodata.cst8   0x0000000008104ee0        0x8 ssc_core_r2017b_dsx86_32_2.a(ssc_core_a6b78ccc.lo86)
 .rodata.cst8   0x0000000008104ee0        0x8 ssc_core_r2017b_dsx86_32_2.a(ssc_core_a867d880.lo86)
 .rodata.cst8   0x0000000008104ee0        0x8 ssc_core_r2017b_dsx86_32_2.a(ssc_core_abd05c18.lo86)
 .rodata.cst16  0x0000000008104ee0       0x20 ssc_core_r2017b_dsx86_32_2.a(ssc_core_c5b050d7.lo86)
 .rodata.cst8   0x0000000008104ee0       0x18 ssc_core_r2017b_dsx86_32_2.a(ssc_core_c5b050d7.lo86)
 .rodata.cst8   0x0000000008104ee0        0x8 ssc_core_r2017b_dsx86_32_2.a(ssc_core_09b5fa6e.lo86)
                                         0x18 (size before relaxing)
 .rodata.cst16  0x0000000008104ee8       0x10 ssc_core_r2017b_dsx86_32_2.a(ssc_core_09b5fa6e.lo86)
 .rodata.cst16  0x0000000008104ee8       0x10 ssc_core_r2017b_dsx86_32_2.a(ssc_core_76d825be.lo86)
 .rodata.cst8   0x0000000008104ee8       0x10 ssc_core_r2017b_dsx86_32_2.a(ssc_core_76d825be.lo86)
 .rodata.cst8   0x0000000008104ee8        0x8 mc_r2017b_dsx86_32_2.a(mc_110e6c6c.lo86)
 .rodata.cst8   0x0000000008104ef0        0x8 mc_r2017b_dsx86_32_2.a(mc_47b8cebe.lo86)
 .rodata.cst16  0x0000000008104ef0       0x10 mc_r2017b_dsx86_32_2.a(mc_47b8cebe.lo86)
 .rodata.cst16  0x0000000008104ef0       0x20 mc_r2017b_dsx86_32_2.a(mc_4b0301c6.lo86)
 .rodata.cst8   0x0000000008104ef0        0x8 mc_r2017b_dsx86_32_2.a(mc_4b0301c6.lo86)
 .rodata.cst8   0x0000000008104ef0       0x20 mc_r2017b_dsx86_32_2.a(mc_53b1fc84.lo86)
                                         0x30 (size before relaxing)
 .rodata.cst8   0x0000000008104f10        0x8 mc_r2017b_dsx86_32_2.a(mc_5766048f.lo86)
 .rodata.cst8   0x0000000008104f10        0x8 mc_r2017b_dsx86_32_2.a(mc_59b6e413.lo86)
                                         0x18 (size before relaxing)
 .rodata.cst16  0x0000000008104f18       0x10 mc_r2017b_dsx86_32_2.a(mc_59b6e413.lo86)
 .rodata.cst8   0x0000000008104f18       0x10 mc_r2017b_dsx86_32_2.a(mc_6b6d311a.lo86)
 .rodata.cst16  0x0000000008104f18       0x20 mc_r2017b_dsx86_32_2.a(mc_6b6d311a.lo86)
 .rodata.cst8   0x0000000008104f18        0x8 mc_r2017b_dsx86_32_2.a(mc_7d099de7.lo86)
 .rodata.cst16  0x0000000008104f20       0x10 mc_r2017b_dsx86_32_2.a(mc_7d099de7.lo86)
 .rodata.cst8   0x0000000008104f20        0x8 mc_r2017b_dsx86_32_2.a(mc_89d597cf.lo86)
 .rodata.cst8   0x0000000008104f20        0x8 mc_r2017b_dsx86_32_2.a(mc_9b6c1529.lo86)
 .rodata.cst16  0x0000000008104f20       0x10 mc_r2017b_dsx86_32_2.a(mc_9b6c1529.lo86)
 .rodata.cst8   0x0000000008104f20        0x8 mc_r2017b_dsx86_32_2.a(mc_acb3fad7.lo86)
                                         0x10 (size before relaxing)
 .rodata.cst16  0x0000000008104f28       0x10 mc_r2017b_dsx86_32_2.a(mc_acb3fad7.lo86)
 .rodata.cst16  0x0000000008104f28       0x20 mc_r2017b_dsx86_32_2.a(mc_b362c5eb.lo86)
 .rodata.cst8   0x0000000008104f28       0x10 mc_r2017b_dsx86_32_2.a(mc_b362c5eb.lo86)
                                         0x28 (size before relaxing)
 .rodata.cst8   0x0000000008104f38        0x8 mc_r2017b_dsx86_32_2.a(mc_bb0520ee.lo86)
 .rodata.cst16  0x0000000008104f38       0x10 mc_r2017b_dsx86_32_2.a(mc_bb0520ee.lo86)
 .rodata.cst8   0x0000000008104f38       0x10 mc_r2017b_dsx86_32_2.a(mc_e7bc2f1a.lo86)
 .rodata.cst16  0x0000000008104f38       0x10 mc_r2017b_dsx86_32_2.a(mc_e7bc2f1a.lo86)
 .rodata.str1.4
                0x0000000008104f38       0x24 mc_r2017b_dsx86_32_2.a(mc_ee000fbe.lo86)
 .rodata.str1.1
                0x0000000008104f5c       0x1e mc_r2017b_dsx86_32_2.a(mc_ee000fbe.lo86)
 .rodata.cst8   0x0000000008104f7a        0x8 mc_r2017b_dsx86_32_2.a(mc_f3be157c.lo86)
 .rodata.cst8   0x0000000008104f7a        0x8 mc_r2017b_dsx86_32_2.a(mc_0d6fd085.lo86)
 .rodata.cst16  0x0000000008104f7a       0x20 mc_r2017b_dsx86_32_2.a(mc_0d6fd085.lo86)
 .rodata.cst8   0x0000000008104f7a       0x10 mc_r2017b_dsx86_32_2.a(mc_11086079.lo86)
 *fill*         0x0000000008104f7a        0x6 
 .rodata.cst8   0x0000000008104f80        0x8 mc_r2017b_dsx86_32_2.a(mc_2cdc96b4.lo86)
                                         0x10 (size before relaxing)
 .rodata.cst8   0x0000000008104f88       0x10 mc_r2017b_dsx86_32_2.a(mc_3e66abdf.lo86)
 .rodata.cst16  0x0000000008104f88       0x10 mc_r2017b_dsx86_32_2.a(mc_3e66abdf.lo86)
 .rodata.cst8   0x0000000008104f88        0x8 mc_r2017b_dsx86_32_2.a(mc_6fb1c336.lo86)
 .rodata.cst8   0x0000000008104f88        0x8 mc_r2017b_dsx86_32_2.a(mc_220ba961.lo86)
 .rodata.cst16  0x0000000008104f88       0x10 mc_r2017b_dsx86_32_2.a(mc_220ba961.lo86)
 .rodata.cst8   0x0000000008104f88       0x10 ex_r2017b_dsx86_32_2.a(ex_8a6fc761.lo86)
 .rodata.cst16  0x0000000008104f88       0x10 ex_r2017b_dsx86_32_2.a(ex_8a6fc761.lo86)
 .rodata.str1.1
                0x0000000008104f88        0xe pm_r2017b_dsx86_32_2.a(pm_26dc3230.lo86)
                                         0x10 (size before relaxing)
 *fill*         0x0000000008104f96        0x2 
 .rodata.cst8   0x0000000008104f98       0x40 pm_r2017b_dsx86_32_2.a(pm_26dc3230.lo86)
                                         0x58 (size before relaxing)
 .rodata.cst16  0x0000000008104fd8       0x10 pm_r2017b_dsx86_32_2.a(pm_26dc3230.lo86)
 .rodata        0x0000000008104fd8       0x30 C:\Program Files\dSPACE RCPHIL 2018-A\SCALEXIO\Lib\libm_fastpow.a(e_pow.o)
 .rodata.cst4   0x0000000008105008       0x24 C:\Program Files\dSPACE RCPHIL 2018-A\SCALEXIO\Lib\libm_fastpow.a(e_pow.o)
                                         0x28 (size before relaxing)
 *fill*         0x000000000810502c        0x4 
 .rodata.cst8   0x0000000008105030       0x90 C:\Program Files\dSPACE RCPHIL 2018-A\SCALEXIO\Lib\libm_fastpow.a(e_pow.o)

.rodata1
 *(.rodata1)

.sdata2
 *(.sdata2 .sdata2.* .gnu.linkonce.s2.*)

.sbss2
 *(.sbss2 .sbss2.* .gnu.linkonce.sb2.*)

.eh_frame_hdr   0x00000000081050c0     0x42bc
 *(.eh_frame_hdr)
 .eh_frame_hdr  0x00000000081050c0     0x42bc mdladapter_mdlfunctions.o86

.eh_frame       0x000000000810937c    0x29b88
 *(.eh_frame)
 .eh_frame      0x000000000810937c       0x3c C:\ProgramData\dSPACE\071346ea-bffa-4465-9551-2e48edf35320\Compiler\QNX650_520\target\qnx6/x86/lib/crt1.o
                                         0x40 (size before relaxing)
 .eh_frame      0x00000000081093b8        0x0 c:/programdata/dspace/071346ea-bffa-4465-9551-2e48edf35320/compiler/qnx650_520/host/win32/x86/usr/bin/../lib/gcc/i486-pc-nto-qnx6.5.0/5.2.0/crtbegin.o
 .eh_frame      0x00000000081093b8       0x54 mdladapter_mdlfunctions.o86
                                         0x6c (size before relaxing)
 .eh_frame      0x000000000810940c      0xb20 mdlCode_ap.o86
                                        0xb38 (size before relaxing)
 .eh_frame      0x0000000008109f2c      0x388 dssimengine_accesspoint.o86
                                        0x3a0 (size before relaxing)
 .eh_frame      0x000000000810a2b4       0x60 dssimengine_api.o86
                                         0x78 (size before relaxing)
 .eh_frame      0x000000000810a314      0x1a8 dssimengine_main.o86
                                        0x1c0 (size before relaxing)
 .eh_frame      0x000000000810a4bc      0x260 rtosal_task.o86
                                        0x298 (size before relaxing)
 .eh_frame      0x000000000810a71c       0x30 rtosal_taskap.o86
                                         0x48 (size before relaxing)
 .eh_frame      0x000000000810a74c      0x138 rtosal_simengineap.o86
                                        0x150 (size before relaxing)
 .eh_frame      0x000000000810a884       0x20 IOCode_Data.o86
                                         0x38 (size before relaxing)
 .eh_frame      0x000000000810a8a4      0x848 rtosal_interapplcom.o86
                                        0x880 (size before relaxing)
 .eh_frame      0x000000000810b0ec      0x128 STLA_MECHANICAL.a(STLA_MECHANICAL_dsrtmdlfcn.lo86)
                                        0x140 (size before relaxing)
 .eh_frame      0x000000000810b214       0x28 STLA_MECHANICAL.a(STLA_MECHANICAL_dsrttf.lo86)
                                         0x40 (size before relaxing)
 .eh_frame      0x000000000810b23c      0x1b0 STLA_MECHANICAL.a(STLA_MECHANICAL.lo86)
                                        0x1c8 (size before relaxing)
 .eh_frame      0x000000000810b3ec       0x28 STLA_MECHANICAL.a(STLA_MECHANICAL_dsrtvdf.lo86)
                                         0x40 (size before relaxing)
 .eh_frame      0x000000000810b414      0x630 Punch_mechanical_B_sample_v3_6_cal_v2_C_rtwlib.lib(Punch_mechanical_B_sample_v3_6_cal_v2_C.lo86)
                                        0x648 (size before relaxing)
 .eh_frame      0x000000000810ba44       0x28 Punch_mechanical_B_sample_v3_6_cal_v2_C_rtwlib.lib(Punch_mechanical_B_sample_v3_6_cal_v2_C_dsrtvdf.lo86)
                                         0x40 (size before relaxing)
 .eh_frame      0x000000000810ba6c       0x64 Punch_mechanical_B_sample_v3_6_cal_v2_C_rtwlib.lib(Punch_mechanical_B_sample_v3_6_cal_v2_C_9a4b384b_1_gateway.lo86)
                                         0x7c (size before relaxing)
 .eh_frame      0x000000000810bad0      0x258 Punch_mechanical_B_sample_v3_6_cal_v2_C_rtwlib.lib(Punch_mechanical_B_sample_v3_6_cal_v2_C_9a4b384b_1.lo86)
                                        0x270 (size before relaxing)
 .eh_frame      0x000000000810bd28     0x1d44 Punch_mechanical_B_sample_v3_6_cal_v2_C_rtwlib.lib(Punch_mechanical_B_sample_v3_6_cal_v2_C_9a4b384b_1_ds.lo86)
                                       0x1d5c (size before relaxing)
 .eh_frame      0x000000000810da6c       0x40 Punch_mechanical_B_sample_v3_6_cal_v2_C_rtwlib.lib(Punch_mechanical_B_sample_v3_6_cal_v2_C_9a4b384b_1_ds_cache_i.lo86)
                                         0x58 (size before relaxing)
 .eh_frame      0x000000000810daac       0x44 Punch_mechanical_B_sample_v3_6_cal_v2_C_rtwlib.lib(Punch_mechanical_B_sample_v3_6_cal_v2_C_9a4b384b_1_ds_assert.lo86)
                                         0x5c (size before relaxing)
 .eh_frame      0x000000000810daf0       0x14 Punch_mechanical_B_sample_v3_6_cal_v2_C_rtwlib.lib(Punch_mechanical_B_sample_v3_6_cal_v2_C_9a4b384b_1_ds_q1.lo86)
                                         0x2c (size before relaxing)
 .eh_frame      0x000000000810db04       0x14 Punch_mechanical_B_sample_v3_6_cal_v2_C_rtwlib.lib(Punch_mechanical_B_sample_v3_6_cal_v2_C_9a4b384b_1_ds_dxf_p.lo86)
                                         0x2c (size before relaxing)
 .eh_frame      0x000000000810db18       0x14 Punch_mechanical_B_sample_v3_6_cal_v2_C_rtwlib.lib(Punch_mechanical_B_sample_v3_6_cal_v2_C_9a4b384b_1_ds_dxm_p.lo86)
                                         0x2c (size before relaxing)
 .eh_frame      0x000000000810db2c       0x14 Punch_mechanical_B_sample_v3_6_cal_v2_C_rtwlib.lib(Punch_mechanical_B_sample_v3_6_cal_v2_C_9a4b384b_1_ds_dxdelt_p.lo86)
                                         0x2c (size before relaxing)
 .eh_frame      0x000000000810db40       0x48 Punch_mechanical_B_sample_v3_6_cal_v2_C_rtwlib.lib(Punch_mechanical_B_sample_v3_6_cal_v2_C_9a4b384b_1_ds_f.lo86)
                                         0x60 (size before relaxing)
 .eh_frame      0x000000000810db88       0x48 Punch_mechanical_B_sample_v3_6_cal_v2_C_rtwlib.lib(Punch_mechanical_B_sample_v3_6_cal_v2_C_9a4b384b_1_ds_update_i.lo86)
                                         0x60 (size before relaxing)
 .eh_frame      0x000000000810dbd0       0x14 Punch_mechanical_B_sample_v3_6_cal_v2_C_rtwlib.lib(Punch_mechanical_B_sample_v3_6_cal_v2_C_9a4b384b_1_ds_qx_p.lo86)
                                         0x2c (size before relaxing)
 .eh_frame      0x000000000810dbe4       0x48 Punch_mechanical_B_sample_v3_6_cal_v2_C_rtwlib.lib(Punch_mechanical_B_sample_v3_6_cal_v2_C_9a4b384b_1_ds_dxf.lo86)
                                         0x60 (size before relaxing)
 .eh_frame      0x000000000810dc2c       0x1c Punch_mechanical_B_sample_v3_6_cal_v2_C_rtwlib.lib(Punch_mechanical_B_sample_v3_6_cal_v2_C_9a4b384b_1_ds_duf.lo86)
                                         0x34 (size before relaxing)
 .eh_frame      0x000000000810dc48       0x30 Punch_mechanical_B_sample_v3_6_cal_v2_C_rtwlib.lib(Punch_mechanical_B_sample_v3_6_cal_v2_C_9a4b384b_1_ds_obs_act.lo86)
                                         0x48 (size before relaxing)
 .eh_frame      0x000000000810dc78       0x14 Punch_mechanical_B_sample_v3_6_cal_v2_C_rtwlib.lib(Punch_mechanical_B_sample_v3_6_cal_v2_C_9a4b384b_1_ds_a.lo86)
                                         0x2c (size before relaxing)
 .eh_frame      0x000000000810dc8c       0x1c Punch_mechanical_B_sample_v3_6_cal_v2_C_rtwlib.lib(Punch_mechanical_B_sample_v3_6_cal_v2_C_9a4b384b_1_ds_obs_exp.lo86)
                                         0x34 (size before relaxing)
 .eh_frame      0x000000000810dca8       0x14 Punch_mechanical_B_sample_v3_6_cal_v2_C_rtwlib.lib(Punch_mechanical_B_sample_v3_6_cal_v2_C_9a4b384b_1_ds_a_p.lo86)
                                         0x2c (size before relaxing)
 .eh_frame      0x000000000810dcbc       0x14 Punch_mechanical_B_sample_v3_6_cal_v2_C_rtwlib.lib(Punch_mechanical_B_sample_v3_6_cal_v2_C_9a4b384b_1_ds_tdxf_p.lo86)
                                         0x2c (size before relaxing)
 .eh_frame      0x000000000810dcd0       0x14 Punch_mechanical_B_sample_v3_6_cal_v2_C_rtwlib.lib(Punch_mechanical_B_sample_v3_6_cal_v2_C_9a4b384b_1_ds_qx.lo86)
                                         0x2c (size before relaxing)
 .eh_frame      0x000000000810dce4       0x14 Punch_mechanical_B_sample_v3_6_cal_v2_C_rtwlib.lib(Punch_mechanical_B_sample_v3_6_cal_v2_C_9a4b384b_1_ds_vmf.lo86)
                                         0x2c (size before relaxing)
 .eh_frame      0x000000000810dcf8       0x14 Punch_mechanical_B_sample_v3_6_cal_v2_C_rtwlib.lib(Punch_mechanical_B_sample_v3_6_cal_v2_C_9a4b384b_1_ds_slf.lo86)
                                         0x2c (size before relaxing)
 .eh_frame      0x000000000810dd0c       0x1c Punch_mechanical_B_sample_v3_6_cal_v2_C_rtwlib.lib(Punch_mechanical_B_sample_v3_6_cal_v2_C_9a4b384b_1_ds_ic.lo86)
                                         0x34 (size before relaxing)
 .eh_frame      0x000000000810dd28       0x14 Punch_mechanical_B_sample_v3_6_cal_v2_C_rtwlib.lib(Punch_mechanical_B_sample_v3_6_cal_v2_C_9a4b384b_1_ds_dxicr_p.lo86)
                                         0x2c (size before relaxing)
 .eh_frame      0x000000000810dd3c       0x30 Punch_mechanical_B_sample_v3_6_cal_v2_C_rtwlib.lib(Punch_mechanical_B_sample_v3_6_cal_v2_C_9a4b384b_1_ds_log.lo86)
                                         0x48 (size before relaxing)
 .eh_frame      0x000000000810dd6c       0x14 Punch_mechanical_B_sample_v3_6_cal_v2_C_rtwlib.lib(Punch_mechanical_B_sample_v3_6_cal_v2_C_9a4b384b_1_ds_m.lo86)
                                         0x2c (size before relaxing)
 .eh_frame      0x000000000810dd80       0x14 Punch_mechanical_B_sample_v3_6_cal_v2_C_rtwlib.lib(Punch_mechanical_B_sample_v3_6_cal_v2_C_9a4b384b_1_ds_m_p.lo86)
                                         0x2c (size before relaxing)
 .eh_frame      0x000000000810dd94       0x14 Punch_mechanical_B_sample_v3_6_cal_v2_C_rtwlib.lib(Punch_mechanical_B_sample_v3_6_cal_v2_C_9a4b384b_1_ds_vmm.lo86)
                                         0x2c (size before relaxing)
 .eh_frame      0x000000000810dda8       0x48 Punch_mechanical_B_sample_v3_6_cal_v2_C_rtwlib.lib(Punch_mechanical_B_sample_v3_6_cal_v2_C_9a4b384b_1_ds_mode.lo86)
                                         0x60 (size before relaxing)
 .eh_frame      0x000000000810ddf0       0x44 Punch_mechanical_B_sample_v3_6_cal_v2_C_rtwlib.lib(Punch_mechanical_B_sample_v3_6_cal_v2_C_9a4b384b_1_ds_obs_all.lo86)
                                         0x5c (size before relaxing)
 .eh_frame      0x000000000810de34       0x14 Punch_mechanical_B_sample_v3_6_cal_v2_C_rtwlib.lib(Punch_mechanical_B_sample_v3_6_cal_v2_C_9a4b384b_1_ds_q1_p.lo86)
                                         0x2c (size before relaxing)
 .eh_frame      0x000000000810de48       0x14 Punch_mechanical_B_sample_v3_6_cal_v2_C_rtwlib.lib(Punch_mechanical_B_sample_v3_6_cal_v2_C_9a4b384b_1_ds_var_tol.lo86)
                                         0x2c (size before relaxing)
 .eh_frame      0x000000000810de5c       0x14 Punch_mechanical_B_sample_v3_6_cal_v2_C_rtwlib.lib(Punch_mechanical_B_sample_v3_6_cal_v2_C_9a4b384b_1_ds_eq_tol.lo86)
                                         0x2c (size before relaxing)
 .eh_frame      0x000000000810de70       0x14 Punch_mechanical_B_sample_v3_6_cal_v2_C_rtwlib.lib(Punch_mechanical_B_sample_v3_6_cal_v2_C_9a4b384b_1_ds_lv.lo86)
                                         0x2c (size before relaxing)
 .eh_frame      0x000000000810de84       0x14 Punch_mechanical_B_sample_v3_6_cal_v2_C_rtwlib.lib(Punch_mechanical_B_sample_v3_6_cal_v2_C_9a4b384b_1_ds_slv.lo86)
                                         0x2c (size before relaxing)
 .eh_frame      0x000000000810de98       0x30 Punch_mechanical_B_sample_v3_6_cal_v2_C_rtwlib.lib(Punch_mechanical_B_sample_v3_6_cal_v2_C_9a4b384b_1_ds_y.lo86)
                                         0x48 (size before relaxing)
 .eh_frame      0x000000000810dec8       0x14 Punch_mechanical_B_sample_v3_6_cal_v2_C_rtwlib.lib(Punch_mechanical_B_sample_v3_6_cal_v2_C_9a4b384b_1_ds_dxy.lo86)
                                         0x2c (size before relaxing)
 .eh_frame      0x000000000810dedc       0x14 Punch_mechanical_B_sample_v3_6_cal_v2_C_rtwlib.lib(Punch_mechanical_B_sample_v3_6_cal_v2_C_9a4b384b_1_ds_dxy_p.lo86)
                                         0x2c (size before relaxing)
 .eh_frame      0x000000000810def0       0x14 Punch_mechanical_B_sample_v3_6_cal_v2_C_rtwlib.lib(Punch_mechanical_B_sample_v3_6_cal_v2_C_9a4b384b_1_ds_mdxy_p.lo86)
                                         0x2c (size before relaxing)
 .eh_frame      0x000000000810df04       0x14 Punch_mechanical_B_sample_v3_6_cal_v2_C_rtwlib.lib(Punch_mechanical_B_sample_v3_6_cal_v2_C_9a4b384b_1_ds_tdxy_p.lo86)
                                         0x2c (size before relaxing)
 .eh_frame      0x000000000810df18       0x48 Punch_mechanical_B_sample_v3_6_cal_v2_C_rtwlib.lib(Punch_mechanical_B_sample_v3_6_cal_v2_C_9a4b384b_1_ds_zc.lo86)
                                         0x60 (size before relaxing)
 .eh_frame      0x000000000810df60       0x58 rtwshared.lib(look1_pbinlcapw.lo86)
                                         0x70 (size before relaxing)
 .eh_frame      0x000000000810dfb8       0x40 rtwshared.lib(look2_pbinlcapw.lo86)
                                         0x58 (size before relaxing)
 .eh_frame      0x000000000810dff8       0x40 rtwshared.lib(rt_backsubrr_dbl.lo86)
                                         0x58 (size before relaxing)
 .eh_frame      0x000000000810e038       0x40 rtwshared.lib(rt_forwardsubrr_dbl.lo86)
                                         0x58 (size before relaxing)
 .eh_frame      0x000000000810e078       0x44 rtwshared.lib(rt_lu_real.lo86)
                                         0x5c (size before relaxing)
 .eh_frame      0x000000000810e0bc       0x68 rtwshared.lib(rt_nonfinite.lo86)
                                         0x80 (size before relaxing)
 .eh_frame      0x000000000810e124       0x50 rtwshared.lib(rtGetInf.lo86)
                                         0x68 (size before relaxing)
 .eh_frame      0x000000000810e174       0x28 rtwshared.lib(rtGetNaN.lo86)
                                         0x40 (size before relaxing)
 .eh_frame      0x000000000810e19c       0x18 ssc_sli_r2017b_dsx86_32_2.a(ssc_sli_0bd269e6.lo86)
                                         0x30 (size before relaxing)
 .eh_frame      0x000000000810e1b4      0x378 ssc_sli_r2017b_dsx86_32_2.a(ssc_sli_5a0cb974.lo86)
                                        0x390 (size before relaxing)
 .eh_frame      0x000000000810e52c      0x1cc ssc_sli_r2017b_dsx86_32_2.a(ssc_sli_c7dda239.lo86)
                                        0x1e4 (size before relaxing)
 .eh_frame      0x000000000810e6f8       0x7c ssc_sli_r2017b_dsx86_32_2.a(ssc_sli_fbdf29da.lo86)
                                         0x94 (size before relaxing)
 .eh_frame      0x000000000810e774      0x32c ssc_sli_r2017b_dsx86_32_2.a(ssc_sli_fa0ce53e.lo86)
                                        0x344 (size before relaxing)
 .eh_frame      0x000000000810eaa0       0x28 ssc_sli_r2017b_dsx86_32_2.a(ssc_sli_550a4805.lo86)
                                         0x40 (size before relaxing)
 .eh_frame      0x000000000810eac8     0x1128 ssc_sli_r2017b_dsx86_32_2.a(ssc_sli_89d0f30a.lo86)
                                       0x1140 (size before relaxing)
 .eh_frame      0x000000000810fbf0      0x14c ssc_sli_r2017b_dsx86_32_2.a(ssc_sli_9c030181.lo86)
                                        0x164 (size before relaxing)
 .eh_frame      0x000000000810fd3c       0x2c ssc_sli_r2017b_dsx86_32_2.a(ssc_sli_dcd66f69.lo86)
                                         0x44 (size before relaxing)
 .eh_frame      0x000000000810fd68      0x3dc ssc_sli_r2017b_dsx86_32_2.a(ssc_sli_eb0a5702.lo86)
                                        0x3f4 (size before relaxing)
 .eh_frame      0x0000000008110144      0x120 ssc_sli_r2017b_dsx86_32_2.a(ssc_sli_0763c151.lo86)
                                        0x138 (size before relaxing)
 .eh_frame      0x0000000008110264      0x250 ssc_sli_r2017b_dsx86_32_2.a(ssc_sli_360cfd63.lo86)
                                        0x268 (size before relaxing)
 .eh_frame      0x00000000081104b4       0xa4 ssc_sli_r2017b_dsx86_32_2.a(ssc_sli_43618287.lo86)
                                         0xbc (size before relaxing)
 .eh_frame      0x0000000008110558      0x330 ssc_sli_r2017b_dsx86_32_2.a(ssc_sli_466b08dd.lo86)
                                        0x348 (size before relaxing)
 .eh_frame      0x0000000008110888      0x5d0 ssc_sli_r2017b_dsx86_32_2.a(ssc_sli_4e028390.lo86)
                                        0x5e8 (size before relaxing)
 .eh_frame      0x0000000008110e58      0x3c0 ssc_sli_r2017b_dsx86_32_2.a(ssc_sli_51dbd3b5.lo86)
                                        0x3d8 (size before relaxing)
 .eh_frame      0x0000000008111218      0x1a4 ssc_sli_r2017b_dsx86_32_2.a(ssc_sli_77063d8b.lo86)
                                        0x1bc (size before relaxing)
 .eh_frame      0x00000000081113bc      0x128 ssc_sli_r2017b_dsx86_32_2.a(ssc_sli_7a618260.lo86)
                                        0x140 (size before relaxing)
 .eh_frame      0x00000000081114e4      0x34c ssc_sli_r2017b_dsx86_32_2.a(ssc_sli_7f630b0f.lo86)
                                        0x364 (size before relaxing)
 .eh_frame      0x0000000008111830      0x154 ssc_sli_r2017b_dsx86_32_2.a(ssc_sli_8a64c4e2.lo86)
                                        0x16c (size before relaxing)
 .eh_frame      0x0000000008111984      0x12c ssc_core_r2017b_dsx86_32_2.a(ssc_core_05058dd9.lo86)
                                        0x144 (size before relaxing)
 .eh_frame      0x0000000008111ab0       0x60 ssc_core_r2017b_dsx86_32_2.a(ssc_core_1c6b0332.lo86)
                                         0x78 (size before relaxing)
 .eh_frame      0x0000000008111b10      0x4a4 ssc_core_r2017b_dsx86_32_2.a(ssc_core_2568b075.lo86)
                                        0x4bc (size before relaxing)
 .eh_frame      0x0000000008111fb4      0x138 ssc_core_r2017b_dsx86_32_2.a(ssc_core_360a4baf.lo86)
                                        0x150 (size before relaxing)
 .eh_frame      0x00000000081120ec       0x64 ssc_core_r2017b_dsx86_32_2.a(ssc_core_4965213d.lo86)
                                         0x7c (size before relaxing)
 .eh_frame      0x0000000008112150     0x2a48 ssc_core_r2017b_dsx86_32_2.a(ssc_core_67d1f118.lo86)
                                       0x2a60 (size before relaxing)
 .eh_frame      0x0000000008114b98      0x10c ssc_core_r2017b_dsx86_32_2.a(ssc_core_6b6b89d2.lo86)
                                        0x124 (size before relaxing)
 .eh_frame      0x0000000008114ca4       0xa0 ssc_core_r2017b_dsx86_32_2.a(ssc_core_6dd833f3.lo86)
                                         0xb8 (size before relaxing)
 .eh_frame      0x0000000008114d44      0x2d8 ssc_core_r2017b_dsx86_32_2.a(ssc_core_8569edc5.lo86)
                                        0x2f0 (size before relaxing)
 .eh_frame      0x000000000811501c      0xa48 ssc_core_r2017b_dsx86_32_2.a(ssc_core_8a6471dc.lo86)
                                        0xa60 (size before relaxing)
 .eh_frame      0x0000000008115a64      0x5c0 ssc_core_r2017b_dsx86_32_2.a(ssc_core_97d767fe.lo86)
                                        0x5d8 (size before relaxing)
 .eh_frame      0x0000000008116024       0x94 ssc_core_r2017b_dsx86_32_2.a(ssc_core_a4d4c45e.lo86)
                                         0xac (size before relaxing)
 .eh_frame      0x00000000081160b8      0xfe4 ssc_core_r2017b_dsx86_32_2.a(ssc_core_abd5e7b4.lo86)
                                        0xffc (size before relaxing)
 .eh_frame      0x000000000811709c      0x190 ssc_core_r2017b_dsx86_32_2.a(ssc_core_acb64294.lo86)
                                        0x1a8 (size before relaxing)
 .eh_frame      0x000000000811722c      0x37c ssc_core_r2017b_dsx86_32_2.a(ssc_core_acb6462e.lo86)
                                        0x394 (size before relaxing)
 .eh_frame      0x00000000081175a8       0x70 ssc_core_r2017b_dsx86_32_2.a(ssc_core_b1038cbb.lo86)
                                         0x88 (size before relaxing)
 .eh_frame      0x0000000008117618      0x220 ssc_core_r2017b_dsx86_32_2.a(ssc_core_b10e34f4.lo86)
                                        0x238 (size before relaxing)
 .eh_frame      0x0000000008117838     0x294c ssc_core_r2017b_dsx86_32_2.a(ssc_core_b2b3b239.lo86)
                                       0x2964 (size before relaxing)
 .eh_frame      0x000000000811a184       0x94 ssc_core_r2017b_dsx86_32_2.a(ssc_core_b402b40d.lo86)
                                         0xac (size before relaxing)
 .eh_frame      0x000000000811a218      0x150 ssc_core_r2017b_dsx86_32_2.a(ssc_core_bb0b2992.lo86)
                                        0x168 (size before relaxing)
 .eh_frame      0x000000000811a368      0x1b8 ssc_core_r2017b_dsx86_32_2.a(ssc_core_c3003040.lo86)
                                        0x1d0 (size before relaxing)
 .eh_frame      0x000000000811a520      0x184 ssc_core_r2017b_dsx86_32_2.a(ssc_core_c5b63cb2.lo86)
                                        0x19c (size before relaxing)
 .eh_frame      0x000000000811a6a4      0x34c ssc_core_r2017b_dsx86_32_2.a(ssc_core_c607b660.lo86)
                                        0x364 (size before relaxing)
 .eh_frame      0x000000000811a9f0     0x1464 ssc_core_r2017b_dsx86_32_2.a(ssc_core_c8d83e88.lo86)
                                       0x147c (size before relaxing)
 .eh_frame      0x000000000811be54       0x14 ssc_core_r2017b_dsx86_32_2.a(ssc_core_cab615c8.lo86)
                                         0x2c (size before relaxing)
 .eh_frame      0x000000000811be68      0x17c ssc_core_r2017b_dsx86_32_2.a(ssc_core_cabdc251.lo86)
                                        0x194 (size before relaxing)
 .eh_frame      0x000000000811bfe4      0x598 ssc_core_r2017b_dsx86_32_2.a(ssc_core_cc067f58.lo86)
                                        0x5b0 (size before relaxing)
 .eh_frame      0x000000000811c57c       0x5c ssc_core_r2017b_dsx86_32_2.a(ssc_core_d06d763c.lo86)
                                         0x74 (size before relaxing)
 .eh_frame      0x000000000811c5d8      0x2dc ssc_core_r2017b_dsx86_32_2.a(ssc_core_d3d34d7c.lo86)
                                        0x2f4 (size before relaxing)
 .eh_frame      0x000000000811c8b4      0x160 ssc_core_r2017b_dsx86_32_2.a(ssc_core_d807fa59.lo86)
                                        0x178 (size before relaxing)
 .eh_frame      0x000000000811ca14      0x1e8 ssc_core_r2017b_dsx86_32_2.a(ssc_core_d9d13dac.lo86)
                                        0x200 (size before relaxing)
 .eh_frame      0x000000000811cbfc      0x1bc ssc_core_r2017b_dsx86_32_2.a(ssc_core_deb7fd8d.lo86)
                                        0x1d4 (size before relaxing)
 .eh_frame      0x000000000811cdb8      0x540 ssc_core_r2017b_dsx86_32_2.a(ssc_core_e0d0866d.lo86)
                                        0x558 (size before relaxing)
 .eh_frame      0x000000000811d2f8      0x1c0 ssc_core_r2017b_dsx86_32_2.a(ssc_core_e2b61d72.lo86)
                                        0x1d8 (size before relaxing)
 .eh_frame      0x000000000811d4b8     0x1ae0 ssc_core_r2017b_dsx86_32_2.a(ssc_core_ee01086d.lo86)
                                       0x1af8 (size before relaxing)
 .eh_frame      0x000000000811ef98      0x2f8 ssc_core_r2017b_dsx86_32_2.a(ssc_core_ee0f0141.lo86)
                                        0x310 (size before relaxing)
 .eh_frame      0x000000000811f290      0x6a4 ssc_core_r2017b_dsx86_32_2.a(ssc_core_f9b6dbed.lo86)
                                        0x6bc (size before relaxing)
 .eh_frame      0x000000000811f934      0x41c ssc_core_r2017b_dsx86_32_2.a(ssc_core_fa09e9e6.lo86)
                                        0x434 (size before relaxing)
 .eh_frame      0x000000000811fd50      0x260 ssc_core_r2017b_dsx86_32_2.a(ssc_core_fbd34e62.lo86)
                                        0x278 (size before relaxing)
 .eh_frame      0x000000000811ffb0       0x70 ssc_core_r2017b_dsx86_32_2.a(ssc_core_ff06d9a4.lo86)
                                         0x88 (size before relaxing)
 .eh_frame      0x0000000008120020       0xc4 ssc_core_r2017b_dsx86_32_2.a(ssc_core_01dcc633.lo86)
                                         0xdc (size before relaxing)
 .eh_frame      0x00000000081200e4      0x35c ssc_core_r2017b_dsx86_32_2.a(ssc_core_06ba68a6.lo86)
                                        0x374 (size before relaxing)
 .eh_frame      0x0000000008120440      0xae4 ssc_core_r2017b_dsx86_32_2.a(ssc_core_0f019bd9.lo86)
                                        0xafc (size before relaxing)
 .eh_frame      0x0000000008120f24       0xa4 ssc_core_r2017b_dsx86_32_2.a(ssc_core_0f0420a6.lo86)
                                         0xbc (size before relaxing)
 .eh_frame      0x0000000008120fc8      0x144 ssc_core_r2017b_dsx86_32_2.a(ssc_core_1b0cafd5.lo86)
                                        0x15c (size before relaxing)
 .eh_frame      0x000000000812110c      0x164 ssc_core_r2017b_dsx86_32_2.a(ssc_core_3169e4b7.lo86)
                                        0x17c (size before relaxing)
 .eh_frame      0x0000000008121270      0x3bc ssc_core_r2017b_dsx86_32_2.a(ssc_core_37d4ea84.lo86)
                                        0x3d4 (size before relaxing)
 .eh_frame      0x000000000812162c      0x26c ssc_core_r2017b_dsx86_32_2.a(ssc_core_40dfdbdc.lo86)
                                        0x284 (size before relaxing)
 .eh_frame      0x0000000008121898       0x14 ssc_core_r2017b_dsx86_32_2.a(ssc_core_41017299.lo86)
                                         0x2c (size before relaxing)
 .eh_frame      0x00000000081218ac       0xa4 ssc_core_r2017b_dsx86_32_2.a(ssc_core_4666b45b.lo86)
                                         0xbc (size before relaxing)
 .eh_frame      0x0000000008121950      0x398 ssc_core_r2017b_dsx86_32_2.a(ssc_core_48b1386a.lo86)
                                        0x3b0 (size before relaxing)
 .eh_frame      0x0000000008121ce8      0x55c ssc_core_r2017b_dsx86_32_2.a(ssc_core_4ad9135b.lo86)
                                        0x574 (size before relaxing)
 .eh_frame      0x0000000008122244       0xa4 ssc_core_r2017b_dsx86_32_2.a(ssc_core_4db6bd68.lo86)
                                         0xbc (size before relaxing)
 .eh_frame      0x00000000081222e8      0x204 ssc_core_r2017b_dsx86_32_2.a(ssc_core_4db86fcc.lo86)
                                        0x21c (size before relaxing)
 .eh_frame      0x00000000081224ec      0x1dc ssc_core_r2017b_dsx86_32_2.a(ssc_core_4e03e39d.lo86)
                                        0x1f4 (size before relaxing)
 .eh_frame      0x00000000081226c8      0x248 ssc_core_r2017b_dsx86_32_2.a(ssc_core_54d55ae9.lo86)
                                        0x260 (size before relaxing)
 .eh_frame      0x0000000008122910      0x2c8 ssc_core_r2017b_dsx86_32_2.a(ssc_core_56b1a2bf.lo86)
                                        0x2e0 (size before relaxing)
 .eh_frame      0x0000000008122bd8      0x410 ssc_core_r2017b_dsx86_32_2.a(ssc_core_59b034b8.lo86)
                                        0x428 (size before relaxing)
 .eh_frame      0x0000000008122fe8     0x15fc ssc_core_r2017b_dsx86_32_2.a(ssc_core_5d6ba758.lo86)
                                       0x1614 (size before relaxing)
 .eh_frame      0x00000000081245e4      0x108 ssc_core_r2017b_dsx86_32_2.a(ssc_core_68da074b.lo86)
                                        0x120 (size before relaxing)
 .eh_frame      0x00000000081246ec      0x674 ssc_core_r2017b_dsx86_32_2.a(ssc_core_73d9c2b7.lo86)
                                        0x68c (size before relaxing)
 .eh_frame      0x0000000008124d60       0xdc ssc_core_r2017b_dsx86_32_2.a(ssc_core_79dd08ab.lo86)
                                         0xf4 (size before relaxing)
 .eh_frame      0x0000000008124e3c      0x404 ssc_core_r2017b_dsx86_32_2.a(ssc_core_7a613edb.lo86)
                                        0x41c (size before relaxing)
 .eh_frame      0x0000000008125240      0x89c ssc_core_r2017b_dsx86_32_2.a(ssc_core_83db8762.lo86)
                                        0x8b4 (size before relaxing)
 .eh_frame      0x0000000008125adc      0x380 ssc_core_r2017b_dsx86_32_2.a(ssc_core_856738f2.lo86)
                                        0x398 (size before relaxing)
 .eh_frame      0x0000000008125e5c      0x2d4 ssc_core_r2017b_dsx86_32_2.a(ssc_core_8d0064b8.lo86)
                                        0x2ec (size before relaxing)
 .eh_frame      0x0000000008126130      0x130 ssc_core_r2017b_dsx86_32_2.a(ssc_core_96061071.lo86)
                                        0x148 (size before relaxing)
 .eh_frame      0x0000000008126260       0x28 ssc_core_r2017b_dsx86_32_2.a(ssc_core_9c016445.lo86)
                                         0x40 (size before relaxing)
 .eh_frame      0x0000000008126288      0x208 ssc_core_r2017b_dsx86_32_2.a(ssc_core_9dd110ad.lo86)
                                        0x220 (size before relaxing)
 .eh_frame      0x0000000008126490     0x13ac ssc_core_r2017b_dsx86_32_2.a(ssc_core_9fb0e229.lo86)
                                       0x13c4 (size before relaxing)
 .eh_frame      0x000000000812783c      0x1f0 ssc_core_r2017b_dsx86_32_2.a(ssc_core_9fb25b4f.lo86)
                                        0x208 (size before relaxing)
 .eh_frame      0x0000000008127a2c      0x370 ssc_core_r2017b_dsx86_32_2.a(ssc_core_a1d393be.lo86)
                                        0x388 (size before relaxing)
 .eh_frame      0x0000000008127d9c      0x418 ssc_core_r2017b_dsx86_32_2.a(ssc_core_a6b78ccc.lo86)
                                        0x430 (size before relaxing)
 .eh_frame      0x00000000081281b4      0x404 ssc_core_r2017b_dsx86_32_2.a(ssc_core_a867d880.lo86)
                                        0x41c (size before relaxing)
 .eh_frame      0x00000000081285b8       0x68 ssc_core_r2017b_dsx86_32_2.a(ssc_core_a9bf1ff2.lo86)
                                         0x80 (size before relaxing)
 .eh_frame      0x0000000008128620      0x1f4 ssc_core_r2017b_dsx86_32_2.a(ssc_core_abd05c18.lo86)
                                        0x20c (size before relaxing)
 .eh_frame      0x0000000008128814      0x350 ssc_core_r2017b_dsx86_32_2.a(ssc_core_b3671372.lo86)
                                        0x368 (size before relaxing)
 .eh_frame      0x0000000008128b64      0x134 ssc_core_r2017b_dsx86_32_2.a(ssc_core_b7b88213.lo86)
                                        0x14c (size before relaxing)
 .eh_frame      0x0000000008128c98       0x30 ssc_core_r2017b_dsx86_32_2.a(ssc_core_b96ebc21.lo86)
                                         0x48 (size before relaxing)
 .eh_frame      0x0000000008128cc8      0x12c ssc_core_r2017b_dsx86_32_2.a(ssc_core_c5b050d7.lo86)
                                        0x144 (size before relaxing)
 .eh_frame      0x0000000008128df4       0x50 ssc_core_r2017b_dsx86_32_2.a(ssc_core_d70a6a09.lo86)
                                         0x68 (size before relaxing)
 .eh_frame      0x0000000008128e44      0x3c4 ssc_core_r2017b_dsx86_32_2.a(ssc_core_dcda6edd.lo86)
                                        0x3dc (size before relaxing)
 .eh_frame      0x0000000008129208      0x544 ssc_core_r2017b_dsx86_32_2.a(ssc_core_09b5fa6e.lo86)
                                        0x55c (size before relaxing)
 .eh_frame      0x000000000812974c      0x338 ssc_core_r2017b_dsx86_32_2.a(ssc_core_0bd666aa.lo86)
                                        0x350 (size before relaxing)
 .eh_frame      0x0000000008129a84      0x1e0 ssc_core_r2017b_dsx86_32_2.a(ssc_core_76d825be.lo86)
                                        0x1f8 (size before relaxing)
 .eh_frame      0x0000000008129c64      0x210 ssc_core_r2017b_dsx86_32_2.a(ssc_core_a4da1d0a.lo86)
                                        0x228 (size before relaxing)
 .eh_frame      0x0000000008129e74       0xc4 ssc_core_r2017b_dsx86_32_2.a(ssc_core_bc648043.lo86)
                                         0xdc (size before relaxing)
 .eh_frame      0x0000000008129f38      0x274 ssc_core_r2017b_dsx86_32_2.a(ssc_core_ce6a84bb.lo86)
                                        0x28c (size before relaxing)
 .eh_frame      0x000000000812a1ac      0xa38 ne_r2017b_dsx86_32_2.a(ne_59b4e14a.lo86)
                                        0xa50 (size before relaxing)
 .eh_frame      0x000000000812abe4       0x28 mc_r2017b_dsx86_32_2.a(mc_0bd30dee.lo86)
                                         0x40 (size before relaxing)
 .eh_frame      0x000000000812ac0c      0x2b4 mc_r2017b_dsx86_32_2.a(mc_110e6c6c.lo86)
                                        0x2cc (size before relaxing)
 .eh_frame      0x000000000812aec0      0x114 mc_r2017b_dsx86_32_2.a(mc_15d828ca.lo86)
                                        0x12c (size before relaxing)
 .eh_frame      0x000000000812afd4      0x174 mc_r2017b_dsx86_32_2.a(mc_2565d6e0.lo86)
                                        0x18c (size before relaxing)
 .eh_frame      0x000000000812b148      0x208 mc_r2017b_dsx86_32_2.a(mc_47b8cebe.lo86)
                                        0x220 (size before relaxing)
 .eh_frame      0x000000000812b350      0xc10 mc_r2017b_dsx86_32_2.a(mc_4b0301c6.lo86)
                                        0xc28 (size before relaxing)
 .eh_frame      0x000000000812bf60       0x6c mc_r2017b_dsx86_32_2.a(mc_52623861.lo86)
                                         0x84 (size before relaxing)
 .eh_frame      0x000000000812bfcc      0x1ec mc_r2017b_dsx86_32_2.a(mc_53b1fc84.lo86)
                                        0x204 (size before relaxing)
 .eh_frame      0x000000000812c1b8       0xe0 mc_r2017b_dsx86_32_2.a(mc_550847c3.lo86)
                                         0xf8 (size before relaxing)
 .eh_frame      0x000000000812c298      0x1b8 mc_r2017b_dsx86_32_2.a(mc_5766048f.lo86)
                                        0x1d0 (size before relaxing)
 .eh_frame      0x000000000812c450      0x318 mc_r2017b_dsx86_32_2.a(mc_59b6e413.lo86)
                                        0x330 (size before relaxing)
 .eh_frame      0x000000000812c768       0x54 mc_r2017b_dsx86_32_2.a(mc_630dda0e.lo86)
                                         0x6c (size before relaxing)
 .eh_frame      0x000000000812c7bc      0x26c mc_r2017b_dsx86_32_2.a(mc_67da4f41.lo86)
                                        0x284 (size before relaxing)
 .eh_frame      0x000000000812ca28       0x48 mc_r2017b_dsx86_32_2.a(mc_6b6d311a.lo86)
                                         0x60 (size before relaxing)
 .eh_frame      0x000000000812ca70      0x1b4 mc_r2017b_dsx86_32_2.a(mc_7bbf41f0.lo86)
                                        0x1cc (size before relaxing)
 .eh_frame      0x000000000812cc24      0xabc mc_r2017b_dsx86_32_2.a(mc_7d0547c8.lo86)
                                        0xad4 (size before relaxing)
 .eh_frame      0x000000000812d6e0      0x2f4 mc_r2017b_dsx86_32_2.a(mc_7d099de7.lo86)
                                        0x30c (size before relaxing)
 .eh_frame      0x000000000812d9d4      0x550 mc_r2017b_dsx86_32_2.a(mc_7eb21b39.lo86)
                                        0x568 (size before relaxing)
 .eh_frame      0x000000000812df24       0x70 mc_r2017b_dsx86_32_2.a(mc_81b5717e.lo86)
                                         0x88 (size before relaxing)
 .eh_frame      0x000000000812df94      0x140 mc_r2017b_dsx86_32_2.a(mc_89d597cf.lo86)
                                        0x158 (size before relaxing)
 .eh_frame      0x000000000812e0d4      0x74c mc_r2017b_dsx86_32_2.a(mc_90b6aa0a.lo86)
                                        0x764 (size before relaxing)
 .eh_frame      0x000000000812e820      0x160 mc_r2017b_dsx86_32_2.a(mc_9ab7d9b0.lo86)
                                        0x178 (size before relaxing)
 .eh_frame      0x000000000812e980      0x22c mc_r2017b_dsx86_32_2.a(mc_9b6c1529.lo86)
                                        0x244 (size before relaxing)
 .eh_frame      0x000000000812ebac       0x44 mc_r2017b_dsx86_32_2.a(mc_a2647600.lo86)
                                         0x5c (size before relaxing)
 .eh_frame      0x000000000812ebf0      0x160 mc_r2017b_dsx86_32_2.a(mc_a26bab1a.lo86)
                                        0x178 (size before relaxing)
 .eh_frame      0x000000000812ed50      0x15c mc_r2017b_dsx86_32_2.a(mc_a3b90582.lo86)
                                        0x174 (size before relaxing)
 .eh_frame      0x000000000812eeac       0xa8 mc_r2017b_dsx86_32_2.a(mc_a865d1dd.lo86)
                                         0xc0 (size before relaxing)
 .eh_frame      0x000000000812ef54      0x4c4 mc_r2017b_dsx86_32_2.a(mc_acb3fad7.lo86)
                                        0x4dc (size before relaxing)
 .eh_frame      0x000000000812f418      0x234 mc_r2017b_dsx86_32_2.a(mc_af0cc4c9.lo86)
                                        0x24c (size before relaxing)
 .eh_frame      0x000000000812f64c       0x6c mc_r2017b_dsx86_32_2.a(mc_b0de9cbc.lo86)
                                         0x84 (size before relaxing)
 .eh_frame      0x000000000812f6b8      0x1c4 mc_r2017b_dsx86_32_2.a(mc_b362c5eb.lo86)
                                        0x1dc (size before relaxing)
 .eh_frame      0x000000000812f87c       0x54 mc_r2017b_dsx86_32_2.a(mc_b7b03d44.lo86)
                                         0x6c (size before relaxing)
 .eh_frame      0x000000000812f8d0       0x2c mc_r2017b_dsx86_32_2.a(mc_b96a0bad.lo86)
                                         0x44 (size before relaxing)
 .eh_frame      0x000000000812f8fc       0x34 mc_r2017b_dsx86_32_2.a(mc_bb0520ee.lo86)
                                         0x4c (size before relaxing)
 .eh_frame      0x000000000812f930      0x308 mc_r2017b_dsx86_32_2.a(mc_bdbb9b78.lo86)
                                        0x320 (size before relaxing)
 .eh_frame      0x000000000812fc38       0xe0 mc_r2017b_dsx86_32_2.a(mc_c8d25d23.lo86)
                                         0xf8 (size before relaxing)
 .eh_frame      0x000000000812fd18      0x110 mc_r2017b_dsx86_32_2.a(mc_d20085b7.lo86)
                                        0x128 (size before relaxing)
 .eh_frame      0x000000000812fe28       0x4c mc_r2017b_dsx86_32_2.a(mc_d9d38185.lo86)
                                         0x64 (size before relaxing)
 .eh_frame      0x000000000812fe74       0x48 mc_r2017b_dsx86_32_2.a(mc_e7bc2f1a.lo86)
                                         0x60 (size before relaxing)
 .eh_frame      0x000000000812febc      0x11c mc_r2017b_dsx86_32_2.a(mc_e969ae87.lo86)
                                        0x134 (size before relaxing)
 .eh_frame      0x000000000812ffd8       0x84 mc_r2017b_dsx86_32_2.a(mc_edbf543c.lo86)
                                         0x9c (size before relaxing)
 .eh_frame      0x000000000813005c      0x19c mc_r2017b_dsx86_32_2.a(mc_efdea3a7.lo86)
                                        0x1b4 (size before relaxing)
 .eh_frame      0x00000000081301f8      0x218 mc_r2017b_dsx86_32_2.a(mc_f3be157c.lo86)
                                        0x230 (size before relaxing)
 .eh_frame      0x0000000008130410      0x128 mc_r2017b_dsx86_32_2.a(mc_fcb15a9b.lo86)
                                        0x140 (size before relaxing)
 .eh_frame      0x0000000008130538      0x208 mc_r2017b_dsx86_32_2.a(mc_fd619d14.lo86)
                                        0x220 (size before relaxing)
 .eh_frame      0x0000000008130740       0x2c mc_r2017b_dsx86_32_2.a(mc_fd6341bb.lo86)
                                         0x44 (size before relaxing)
 .eh_frame      0x000000000813076c       0x58 mc_r2017b_dsx86_32_2.a(mc_03b98f6f.lo86)
                                         0x70 (size before relaxing)
 .eh_frame      0x00000000081307c4       0x70 mc_r2017b_dsx86_32_2.a(mc_0d6fd085.lo86)
                                         0x88 (size before relaxing)
 .eh_frame      0x0000000008130834       0x80 mc_r2017b_dsx86_32_2.a(mc_0ed73c49.lo86)
                                         0x98 (size before relaxing)
 .eh_frame      0x00000000081308b4      0x20c mc_r2017b_dsx86_32_2.a(mc_11086079.lo86)
                                        0x224 (size before relaxing)
 .eh_frame      0x0000000008130ac0      0x4f0 mc_r2017b_dsx86_32_2.a(mc_15d12d95.lo86)
                                        0x508 (size before relaxing)
 .eh_frame      0x0000000008130fb0      0x168 mc_r2017b_dsx86_32_2.a(mc_2cdc96b4.lo86)
                                        0x180 (size before relaxing)
 .eh_frame      0x0000000008131118       0x4c mc_r2017b_dsx86_32_2.a(mc_32dc008a.lo86)
                                         0x64 (size before relaxing)
 .eh_frame      0x0000000008131164       0x5c mc_r2017b_dsx86_32_2.a(mc_3e66abdf.lo86)
                                         0x74 (size before relaxing)
 .eh_frame      0x00000000081311c0      0x104 mc_r2017b_dsx86_32_2.a(mc_51d4094e.lo86)
                                        0x11c (size before relaxing)
 .eh_frame      0x00000000081312c4       0x78 mc_r2017b_dsx86_32_2.a(mc_52688a58.lo86)
                                         0x90 (size before relaxing)
 .eh_frame      0x000000000813133c      0x15c mc_r2017b_dsx86_32_2.a(mc_5d65cd86.lo86)
                                        0x174 (size before relaxing)
 .eh_frame      0x0000000008131498       0xb4 mc_r2017b_dsx86_32_2.a(mc_67da200d.lo86)
                                         0xcc (size before relaxing)
 .eh_frame      0x000000000813154c       0xe4 mc_r2017b_dsx86_32_2.a(mc_6fb1c336.lo86)
                                         0xfc (size before relaxing)
 .eh_frame      0x0000000008131630       0x54 mc_r2017b_dsx86_32_2.a(mc_7a613aec.lo86)
                                         0x6c (size before relaxing)
 .eh_frame      0x0000000008131684       0x78 mc_r2017b_dsx86_32_2.a(mc_7cd58f0b.lo86)
                                         0x90 (size before relaxing)
 .eh_frame      0x00000000081316fc       0x60 mc_r2017b_dsx86_32_2.a(mc_7cdbe436.lo86)
                                         0x78 (size before relaxing)
 .eh_frame      0x000000000813175c       0xc4 mc_r2017b_dsx86_32_2.a(mc_870ec75e.lo86)
                                         0xdc (size before relaxing)
 .eh_frame      0x0000000008131820       0xf8 mc_r2017b_dsx86_32_2.a(mc_9b6376d1.lo86)
                                        0x110 (size before relaxing)
 .eh_frame      0x0000000008131918       0x58 mc_r2017b_dsx86_32_2.a(mc_dbbb14d2.lo86)
                                         0x70 (size before relaxing)
 .eh_frame      0x0000000008131970       0x54 mc_r2017b_dsx86_32_2.a(mc_dcdddfae.lo86)
                                         0x6c (size before relaxing)
 .eh_frame      0x00000000081319c4       0x38 mc_r2017b_dsx86_32_2.a(mc_debb448f.lo86)
                                         0x50 (size before relaxing)
 .eh_frame      0x00000000081319fc      0x1a0 mc_r2017b_dsx86_32_2.a(mc_220ba961.lo86)
                                        0x1b8 (size before relaxing)
 .eh_frame      0x0000000008131b9c      0x220 ex_r2017b_dsx86_32_2.a(ex_04d5441d.lo86)
                                        0x238 (size before relaxing)
 .eh_frame      0x0000000008131dbc      0x18c ex_r2017b_dsx86_32_2.a(ex_18b4440a.lo86)
                                        0x1a4 (size before relaxing)
 .eh_frame      0x0000000008131f48       0xac ex_r2017b_dsx86_32_2.a(ex_8a6fc761.lo86)
                                         0xc4 (size before relaxing)
 .eh_frame      0x0000000008131ff4      0x3e4 pm_r2017b_dsx86_32_2.a(pm_09bc42e2.lo86)
                                        0x3fc (size before relaxing)
 .eh_frame      0x00000000081323d8      0x248 pm_r2017b_dsx86_32_2.a(pm_14098e54.lo86)
                                        0x260 (size before relaxing)
 .eh_frame      0x0000000008132620      0x270 pm_r2017b_dsx86_32_2.a(pm_26dc3230.lo86)
                                        0x288 (size before relaxing)
 .eh_frame      0x0000000008132890       0x3c pm_r2017b_dsx86_32_2.a(pm_4fd5f5b9.lo86)
                                         0x54 (size before relaxing)
 .eh_frame      0x00000000081328cc      0x634 pm_r2017b_dsx86_32_2.a(pm_fed8c2c9.lo86)
                                        0x64c (size before relaxing)
 .eh_frame      0x0000000008132f00        0x4 c:/programdata/dspace/071346ea-bffa-4465-9551-2e48edf35320/compiler/qnx650_520/host/win32/x86/usr/bin/../lib/gcc/i486-pc-nto-qnx6.5.0/5.2.0/crtend.o

.gcc_except_table
                0x0000000008132f04       0x32
 *(.gcc_except_table .gcc_except_table.*)
 .gcc_except_table
                0x0000000008132f04       0x10 dssimengine_main.o86
 .gcc_except_table
                0x0000000008132f14       0x10 rtosal_task.o86
 .gcc_except_table
                0x0000000008132f24       0x12 rtosal_interapplcom.o86

.exception_ranges
 *(.exception_ranges .exception_ranges*)
                0x0000000008132f36                . = (ALIGN (0x1000) - ((0x1000 - .) & 0xfff))
                0x0000000008133000                . = DATA_SEGMENT_ALIGN (0x1000, 0x1000)

.eh_frame
 *(.eh_frame)

.gcc_except_table
 *(.gcc_except_table .gcc_except_table.*)

.exception_ranges
 *(.exception_ranges .exception_ranges*)

.tdata
 *(.tdata .tdata.* .gnu.linkonce.td.*)

.tbss
 *(.tbss .tbss.* .gnu.linkonce.tb.*)
 *(.tcommon)

.preinit_array  0x0000000008133000        0x0
                0x0000000008133000                PROVIDE (__preinit_array_start, .)
 *(.preinit_array)
                0x0000000008133000                PROVIDE (__preinit_array_end, .)

.init_array     0x0000000008133000        0x0
                0x0000000008133000                PROVIDE (__init_array_start, .)
 *(SORT(.init_array.*))
 *(.init_array)
                0x0000000008133000                PROVIDE (__init_array_end, .)

.fini_array     0x0000000008133000        0x0
                0x0000000008133000                PROVIDE (__fini_array_start, .)
 *(SORT(.fini_array.*))
 *(.fini_array)
                0x0000000008133000                PROVIDE (__fini_array_end, .)

.ctors          0x0000000008133000       0x18
 *crtbegin.o(.ctors)
 .ctors         0x0000000008133000        0x4 c:/programdata/dspace/071346ea-bffa-4465-9551-2e48edf35320/compiler/qnx650_520/host/win32/x86/usr/bin/../lib/gcc/i486-pc-nto-qnx6.5.0/5.2.0/crtbegin.o
 *crtbegin?.o(.ctors)
 *(EXCLUDE_FILE(*crtend?.o *crtend.o) .ctors)
 .ctors         0x0000000008133004        0x8 dssimengine_main.o86
 .ctors         0x000000000813300c        0x4 rtosal_simengineap.o86
 .ctors         0x0000000008133010        0x4 IOCode_Data.o86
 *(SORT(.ctors.*))
 *(.ctors)
 .ctors         0x0000000008133014        0x4 c:/programdata/dspace/071346ea-bffa-4465-9551-2e48edf35320/compiler/qnx650_520/host/win32/x86/usr/bin/../lib/gcc/i486-pc-nto-qnx6.5.0/5.2.0/crtend.o

.dtors          0x0000000008133018        0x8
 *crtbegin.o(.dtors)
 .dtors         0x0000000008133018        0x4 c:/programdata/dspace/071346ea-bffa-4465-9551-2e48edf35320/compiler/qnx650_520/host/win32/x86/usr/bin/../lib/gcc/i486-pc-nto-qnx6.5.0/5.2.0/crtbegin.o
 *crtbegin?.o(.dtors)
 *(EXCLUDE_FILE(*crtend?.o *crtend.o) .dtors)
 *(SORT(.dtors.*))
 *(.dtors)
 .dtors         0x000000000813301c        0x4 c:/programdata/dspace/071346ea-bffa-4465-9551-2e48edf35320/compiler/qnx650_520/host/win32/x86/usr/bin/../lib/gcc/i486-pc-nto-qnx6.5.0/5.2.0/crtend.o
                0x000000000813301c                __DTOR_END__

.jcr            0x0000000008133020        0x4
 *(.jcr)
 .jcr           0x0000000008133020        0x0 c:/programdata/dspace/071346ea-bffa-4465-9551-2e48edf35320/compiler/qnx650_520/host/win32/x86/usr/bin/../lib/gcc/i486-pc-nto-qnx6.5.0/5.2.0/crtbegin.o
 .jcr           0x0000000008133020        0x4 c:/programdata/dspace/071346ea-bffa-4465-9551-2e48edf35320/compiler/qnx650_520/host/win32/x86/usr/bin/../lib/gcc/i486-pc-nto-qnx6.5.0/5.2.0/crtend.o

.data.rel.ro
 *(.data.rel.ro.local* .gnu.linkonce.d.rel.ro.local.*)
 *(.data.rel.ro .data.rel.ro.* .gnu.linkonce.d.rel.ro.*)

.dynamic        0x0000000008133024       0xe8
 *(.dynamic)
 .dynamic       0x0000000008133024       0xe8 C:\ProgramData\dSPACE\071346ea-bffa-4465-9551-2e48edf35320\Compiler\QNX650_520\target\qnx6/x86/lib/crt1.o
                0x0000000008133024                _DYNAMIC
                0x000000000813310c                . = DATA_SEGMENT_RELRO_END (., 0x0)

.data           0x0000000008133120    0x21e20
 *(.data .data.* .gnu.linkonce.d.*)
 .data          0x0000000008133120        0x0 C:\ProgramData\dSPACE\071346ea-bffa-4465-9551-2e48edf35320\Compiler\QNX650_520\target\qnx6/x86/lib/crt1.o
 .data          0x0000000008133120        0x0 C:\ProgramData\dSPACE\071346ea-bffa-4465-9551-2e48edf35320\Compiler\QNX650_520\target\qnx6/x86/lib/crti.o
 .data          0x0000000008133120        0x0 c:/programdata/dspace/071346ea-bffa-4465-9551-2e48edf35320/compiler/qnx650_520/host/win32/x86/usr/bin/../lib/gcc/i486-pc-nto-qnx6.5.0/5.2.0/crtbegin.o
 .data.rel.local
                0x0000000008133120        0x4 c:/programdata/dspace/071346ea-bffa-4465-9551-2e48edf35320/compiler/qnx650_520/host/win32/x86/usr/bin/../lib/gcc/i486-pc-nto-qnx6.5.0/5.2.0/crtbegin.o
                0x0000000008133120                __dso_handle
 .data          0x0000000008133124        0x0 mdladapter_mdlfunctions.o86
 .data          0x0000000008133124        0x0 mdlCode_ap.o86
 .data          0x0000000008133124        0x1 dssimengine_accesspoint.o86
                0x0000000008133124                isFirstSimulation
 .data          0x0000000008133125        0x0 dssimengine_api.o86
 *fill*         0x0000000008133125       0x1b 
 .data          0x0000000008133140       0x34 dssimengine_main.o86
                0x0000000008133140                ApplInfoDsCApplicationMain
                0x0000000008133168                DsFwIfVersion
                0x000000000813316c                DsApplIfVersion
                0x0000000008133170                SimEngineLastApplState
 .data          0x0000000008133174        0x0 rtosal_task.o86
 .data          0x0000000008133174        0x0 rtosal_taskap.o86
 *fill*         0x0000000008133174        0x4 
 .data          0x0000000008133178       0x20 rtosal_simengineap.o86
                0x0000000008133178                ScalingFactor
                0x0000000008133180                ScaledTimeInterval
                0x0000000008133188                g_dsrtt_comm_enabled
 *fill*         0x0000000008133198        0x8 
 .data          0x00000000081331a0       0x24 IOCode_Data.o86
                0x00000000081331a0                g_ResourceMap
 .data          0x00000000081331c4        0x0 mdlcfg_interapplcom.o86
 .data          0x00000000081331c4        0x0 rtosal_interapplcom.o86
 .data          0x00000000081331c4        0x0 STLA_MECHANICAL.a(STLA_MECHANICAL_dsrtmdlfcn.lo86)
 .data          0x00000000081331c4        0x0 STLA_MECHANICAL.a(STLA_MECHANICAL_dsrttf.lo86)
 .data          0x00000000081331c4        0x0 STLA_MECHANICAL.a(STLA_MECHANICAL.lo86)
 *fill*         0x00000000081331c4       0x1c 
 .data          0x00000000081331e0     0x2510 STLA_MECHANICAL.a(STLA_MECHANICAL_data.lo86)
                0x00000000081331e0                rtP_z_LDS2ForceIndex_LT
                0x00000000081333e0                rtP_x_sleeve_fork_play45_init
                0x00000000081333e8                rtP_x_sleeve_fork_play01_init
                0x00000000081333f0                rtP_x_sleeve6_init
                0x00000000081333f8                rtP_x_sleeve45_init
                0x0000000008133400                rtP_x_sleeve23_init
                0x0000000008133408                rtP_x_sleeve01_init
                0x0000000008133420                rtP_x_roller6_ax_M1
                0x0000000008133880                rtP_x_roller45_ax_M1
                0x0000000008133ce0                rtP_x_roller23_ax_M1
                0x0000000008134140                rtP_x_roller01_ax_M1
                0x00000000081345a0                rtP_w_clu2_delta_XA
                0x0000000008134600                rtP_w_clu1_delta_XA
                0x0000000008134660                rtP_w_clu0_delta_XA
                0x00000000081346b0                rtP_r_gearUP
                0x00000000081346b8                rtP_r_gearLP
                0x00000000081346c0                rtP_r_drum_abs_scaling
                0x00000000081346e0                rtP_r_clu2_tempDep_M1
                0x0000000008134720                rtP_r_clu1_tempDep_M1
                0x0000000008134760                rtP_r_clu0_tempDep_M1
                0x00000000081347a0                rtP_r_clu0_centcoef_piston
                0x00000000081347c0                rtP_p_clu2_YA
                0x0000000008134800                rtP_p_clu1_YA
                0x0000000008134840                rtP_p_clu0_YA
                0x0000000008134878                rtP_offset_drum_abs
                0x0000000008134880                rtP_T_sump_clu_low
                0x0000000008134888                rtP_T_sump_clu_high
                0x00000000081348a0                rtP_T_clu2_XA
                0x00000000081348e0                rtP_T_clu1_XA
                0x0000000008134920                rtP_T_clu0_XA
                0x0000000008134960                rtP_M_clu2_drag_const
                0x0000000008134980                rtP_M_clu2_LowTemp_M2
                0x0000000008134bc0                rtP_M_clu2_HighTemp_M2
                0x0000000008134e00                rtP_M_clu1_LowTemp_M2
                0x0000000008135040                rtP_M_clu1_HighTemp_M2
                0x0000000008135270                rtP_M_clu1Sun_drag_const
                0x0000000008135278                rtP_M_clu0_drag_const
                0x0000000008135280                rtP_M_clu0_LowTemp_M2
                0x00000000081354c0                rtP_M_clu0_HighTemp_M2
 .data          0x00000000081356f0        0x0 STLA_MECHANICAL.a(STLA_MECHANICAL_dsrtvdf.lo86)
 *fill*         0x00000000081356f0       0x10 
 .data          0x0000000008135700      0x380 Punch_mechanical_B_sample_v3_6_cal_v2_C_rtwlib.lib(Punch_mechanical_B_sample_v3_6_cal_v2_C.lo86)
                0x0000000008135700                Punch_mechanical_B_sample_v3_6_cal_v2_C_P_g
 .data          0x0000000008135a80        0x0 Punch_mechanical_B_sample_v3_6_cal_v2_C_rtwlib.lib(Punch_mechanical_B_sample_v3_6_cal_v2_C_dsrtvdf.lo86)
 .data          0x0000000008135a80        0x0 Punch_mechanical_B_sample_v3_6_cal_v2_C_rtwlib.lib(Punch_mechanical_B_sample_v3_6_cal_v2_C_9a4b384b_1_gateway.lo86)
 .data          0x0000000008135a80        0x0 Punch_mechanical_B_sample_v3_6_cal_v2_C_rtwlib.lib(Punch_mechanical_B_sample_v3_6_cal_v2_C_9a4b384b_1.lo86)
 .data          0x0000000008135a80    0x1f314 Punch_mechanical_B_sample_v3_6_cal_v2_C_rtwlib.lib(Punch_mechanical_B_sample_v3_6_cal_v2_C_9a4b384b_1_ds.lo86)
 .data          0x0000000008154d94        0x0 Punch_mechanical_B_sample_v3_6_cal_v2_C_rtwlib.lib(Punch_mechanical_B_sample_v3_6_cal_v2_C_9a4b384b_1_ds_cache_i.lo86)
 .data          0x0000000008154d94        0x0 Punch_mechanical_B_sample_v3_6_cal_v2_C_rtwlib.lib(Punch_mechanical_B_sample_v3_6_cal_v2_C_9a4b384b_1_ds_assert.lo86)
 .data          0x0000000008154d94        0x0 Punch_mechanical_B_sample_v3_6_cal_v2_C_rtwlib.lib(Punch_mechanical_B_sample_v3_6_cal_v2_C_9a4b384b_1_ds_q1.lo86)
 .data          0x0000000008154d94        0x0 Punch_mechanical_B_sample_v3_6_cal_v2_C_rtwlib.lib(Punch_mechanical_B_sample_v3_6_cal_v2_C_9a4b384b_1_ds_dxf_p.lo86)
 .data          0x0000000008154d94        0x0 Punch_mechanical_B_sample_v3_6_cal_v2_C_rtwlib.lib(Punch_mechanical_B_sample_v3_6_cal_v2_C_9a4b384b_1_ds_dxm_p.lo86)
 .data          0x0000000008154d94        0x0 Punch_mechanical_B_sample_v3_6_cal_v2_C_rtwlib.lib(Punch_mechanical_B_sample_v3_6_cal_v2_C_9a4b384b_1_ds_dxdelt_p.lo86)
 .data          0x0000000008154d94        0x0 Punch_mechanical_B_sample_v3_6_cal_v2_C_rtwlib.lib(Punch_mechanical_B_sample_v3_6_cal_v2_C_9a4b384b_1_ds_f.lo86)
 .data          0x0000000008154d94        0x0 Punch_mechanical_B_sample_v3_6_cal_v2_C_rtwlib.lib(Punch_mechanical_B_sample_v3_6_cal_v2_C_9a4b384b_1_ds_update_i.lo86)
 .data          0x0000000008154d94        0x0 Punch_mechanical_B_sample_v3_6_cal_v2_C_rtwlib.lib(Punch_mechanical_B_sample_v3_6_cal_v2_C_9a4b384b_1_ds_qx_p.lo86)
 .data          0x0000000008154d94        0x0 Punch_mechanical_B_sample_v3_6_cal_v2_C_rtwlib.lib(Punch_mechanical_B_sample_v3_6_cal_v2_C_9a4b384b_1_ds_dxf.lo86)
 .data          0x0000000008154d94        0x0 Punch_mechanical_B_sample_v3_6_cal_v2_C_rtwlib.lib(Punch_mechanical_B_sample_v3_6_cal_v2_C_9a4b384b_1_ds_duf.lo86)
 .data          0x0000000008154d94        0x0 Punch_mechanical_B_sample_v3_6_cal_v2_C_rtwlib.lib(Punch_mechanical_B_sample_v3_6_cal_v2_C_9a4b384b_1_ds_obs_act.lo86)
 .data          0x0000000008154d94        0x0 Punch_mechanical_B_sample_v3_6_cal_v2_C_rtwlib.lib(Punch_mechanical_B_sample_v3_6_cal_v2_C_9a4b384b_1_ds_a.lo86)
 .data          0x0000000008154d94        0x0 Punch_mechanical_B_sample_v3_6_cal_v2_C_rtwlib.lib(Punch_mechanical_B_sample_v3_6_cal_v2_C_9a4b384b_1_ds_obs_exp.lo86)
 .data          0x0000000008154d94        0x0 Punch_mechanical_B_sample_v3_6_cal_v2_C_rtwlib.lib(Punch_mechanical_B_sample_v3_6_cal_v2_C_9a4b384b_1_ds_a_p.lo86)
 .data          0x0000000008154d94        0x0 Punch_mechanical_B_sample_v3_6_cal_v2_C_rtwlib.lib(Punch_mechanical_B_sample_v3_6_cal_v2_C_9a4b384b_1_ds_tdxf_p.lo86)
 .data          0x0000000008154d94        0x0 Punch_mechanical_B_sample_v3_6_cal_v2_C_rtwlib.lib(Punch_mechanical_B_sample_v3_6_cal_v2_C_9a4b384b_1_ds_qx.lo86)
 .data          0x0000000008154d94        0x0 Punch_mechanical_B_sample_v3_6_cal_v2_C_rtwlib.lib(Punch_mechanical_B_sample_v3_6_cal_v2_C_9a4b384b_1_ds_vmf.lo86)
 .data          0x0000000008154d94        0x0 Punch_mechanical_B_sample_v3_6_cal_v2_C_rtwlib.lib(Punch_mechanical_B_sample_v3_6_cal_v2_C_9a4b384b_1_ds_slf.lo86)
 .data          0x0000000008154d94        0x0 Punch_mechanical_B_sample_v3_6_cal_v2_C_rtwlib.lib(Punch_mechanical_B_sample_v3_6_cal_v2_C_9a4b384b_1_ds_ic.lo86)
 .data          0x0000000008154d94        0x0 Punch_mechanical_B_sample_v3_6_cal_v2_C_rtwlib.lib(Punch_mechanical_B_sample_v3_6_cal_v2_C_9a4b384b_1_ds_dxicr_p.lo86)
 .data          0x0000000008154d94        0x0 Punch_mechanical_B_sample_v3_6_cal_v2_C_rtwlib.lib(Punch_mechanical_B_sample_v3_6_cal_v2_C_9a4b384b_1_ds_log.lo86)
 .data          0x0000000008154d94        0x0 Punch_mechanical_B_sample_v3_6_cal_v2_C_rtwlib.lib(Punch_mechanical_B_sample_v3_6_cal_v2_C_9a4b384b_1_ds_m.lo86)
 .data          0x0000000008154d94        0x0 Punch_mechanical_B_sample_v3_6_cal_v2_C_rtwlib.lib(Punch_mechanical_B_sample_v3_6_cal_v2_C_9a4b384b_1_ds_m_p.lo86)
 .data          0x0000000008154d94        0x0 Punch_mechanical_B_sample_v3_6_cal_v2_C_rtwlib.lib(Punch_mechanical_B_sample_v3_6_cal_v2_C_9a4b384b_1_ds_vmm.lo86)
 .data          0x0000000008154d94        0x0 Punch_mechanical_B_sample_v3_6_cal_v2_C_rtwlib.lib(Punch_mechanical_B_sample_v3_6_cal_v2_C_9a4b384b_1_ds_mode.lo86)
 .data          0x0000000008154d94        0x0 Punch_mechanical_B_sample_v3_6_cal_v2_C_rtwlib.lib(Punch_mechanical_B_sample_v3_6_cal_v2_C_9a4b384b_1_ds_obs_all.lo86)
 .data          0x0000000008154d94        0x0 Punch_mechanical_B_sample_v3_6_cal_v2_C_rtwlib.lib(Punch_mechanical_B_sample_v3_6_cal_v2_C_9a4b384b_1_ds_q1_p.lo86)
 .data          0x0000000008154d94        0x0 Punch_mechanical_B_sample_v3_6_cal_v2_C_rtwlib.lib(Punch_mechanical_B_sample_v3_6_cal_v2_C_9a4b384b_1_ds_var_tol.lo86)
 .data          0x0000000008154d94        0x0 Punch_mechanical_B_sample_v3_6_cal_v2_C_rtwlib.lib(Punch_mechanical_B_sample_v3_6_cal_v2_C_9a4b384b_1_ds_eq_tol.lo86)
 .data          0x0000000008154d94        0x0 Punch_mechanical_B_sample_v3_6_cal_v2_C_rtwlib.lib(Punch_mechanical_B_sample_v3_6_cal_v2_C_9a4b384b_1_ds_lv.lo86)
 .data          0x0000000008154d94        0x0 Punch_mechanical_B_sample_v3_6_cal_v2_C_rtwlib.lib(Punch_mechanical_B_sample_v3_6_cal_v2_C_9a4b384b_1_ds_slv.lo86)
 .data          0x0000000008154d94        0x0 Punch_mechanical_B_sample_v3_6_cal_v2_C_rtwlib.lib(Punch_mechanical_B_sample_v3_6_cal_v2_C_9a4b384b_1_ds_y.lo86)
 .data          0x0000000008154d94        0x0 Punch_mechanical_B_sample_v3_6_cal_v2_C_rtwlib.lib(Punch_mechanical_B_sample_v3_6_cal_v2_C_9a4b384b_1_ds_dxy.lo86)
 .data          0x0000000008154d94        0x0 Punch_mechanical_B_sample_v3_6_cal_v2_C_rtwlib.lib(Punch_mechanical_B_sample_v3_6_cal_v2_C_9a4b384b_1_ds_dxy_p.lo86)
 .data          0x0000000008154d94        0x0 Punch_mechanical_B_sample_v3_6_cal_v2_C_rtwlib.lib(Punch_mechanical_B_sample_v3_6_cal_v2_C_9a4b384b_1_ds_mdxy_p.lo86)
 .data          0x0000000008154d94        0x0 Punch_mechanical_B_sample_v3_6_cal_v2_C_rtwlib.lib(Punch_mechanical_B_sample_v3_6_cal_v2_C_9a4b384b_1_ds_tdxy_p.lo86)
 .data          0x0000000008154d94        0x0 Punch_mechanical_B_sample_v3_6_cal_v2_C_rtwlib.lib(Punch_mechanical_B_sample_v3_6_cal_v2_C_9a4b384b_1_ds_zc.lo86)
 .data          0x0000000008154d94        0x0 rtwshared.lib(look1_pbinlcapw.lo86)
 .data          0x0000000008154d94        0x0 rtwshared.lib(look2_pbinlcapw.lo86)
 .data          0x0000000008154d94        0x0 rtwshared.lib(rt_backsubrr_dbl.lo86)
 .data          0x0000000008154d94        0x0 rtwshared.lib(rt_forwardsubrr_dbl.lo86)
 .data          0x0000000008154d94        0x0 rtwshared.lib(rt_lu_real.lo86)
 .data          0x0000000008154d94        0x0 rtwshared.lib(rt_nonfinite.lo86)
 .data          0x0000000008154d94        0x0 rtwshared.lib(rtGetInf.lo86)
 .data          0x0000000008154d94        0x0 rtwshared.lib(rtGetNaN.lo86)
 .data          0x0000000008154d94        0x0 ssc_sli_r2017b_dsx86_32_2.a(ssc_sli_0bd269e6.lo86)
 .data          0x0000000008154d94        0x0 ssc_sli_r2017b_dsx86_32_2.a(ssc_sli_5a0cb974.lo86)
 .data          0x0000000008154d94        0x0 ssc_sli_r2017b_dsx86_32_2.a(ssc_sli_c7dda239.lo86)
 .data          0x0000000008154d94        0x0 ssc_sli_r2017b_dsx86_32_2.a(ssc_sli_fbdf29da.lo86)
 .data          0x0000000008154d94        0x0 ssc_sli_r2017b_dsx86_32_2.a(ssc_sli_fa0ce53e.lo86)
 .data          0x0000000008154d94        0x0 ssc_sli_r2017b_dsx86_32_2.a(ssc_sli_550a4805.lo86)
 .data          0x0000000008154d94        0x0 ssc_sli_r2017b_dsx86_32_2.a(ssc_sli_89d0f30a.lo86)
 .data          0x0000000008154d94        0x0 ssc_sli_r2017b_dsx86_32_2.a(ssc_sli_9c030181.lo86)
 .data          0x0000000008154d94        0x0 ssc_sli_r2017b_dsx86_32_2.a(ssc_sli_dcd66f69.lo86)
 .data          0x0000000008154d94        0x0 ssc_sli_r2017b_dsx86_32_2.a(ssc_sli_eb0a5702.lo86)
 .data          0x0000000008154d94        0x0 ssc_sli_r2017b_dsx86_32_2.a(ssc_sli_0763c151.lo86)
 .data          0x0000000008154d94        0x0 ssc_sli_r2017b_dsx86_32_2.a(ssc_sli_360cfd63.lo86)
 .data          0x0000000008154d94        0x0 ssc_sli_r2017b_dsx86_32_2.a(ssc_sli_43618287.lo86)
 .data          0x0000000008154d94        0x0 ssc_sli_r2017b_dsx86_32_2.a(ssc_sli_466b08dd.lo86)
 .data          0x0000000008154d94        0x0 ssc_sli_r2017b_dsx86_32_2.a(ssc_sli_4e028390.lo86)
 .data          0x0000000008154d94        0x0 ssc_sli_r2017b_dsx86_32_2.a(ssc_sli_51dbd3b5.lo86)
 *fill*         0x0000000008154d94        0xc 
 .data          0x0000000008154da0       0x24 ssc_sli_r2017b_dsx86_32_2.a(ssc_sli_62d81790.lo86)
                0x0000000008154da0                ssc_sli_JpyjyF5oKSz9bh_1Or4v52
 .data          0x0000000008154dc4        0x0 ssc_sli_r2017b_dsx86_32_2.a(ssc_sli_77063d8b.lo86)
 .data          0x0000000008154dc4        0x0 ssc_sli_r2017b_dsx86_32_2.a(ssc_sli_7a618260.lo86)
 .data          0x0000000008154dc4        0x0 ssc_sli_r2017b_dsx86_32_2.a(ssc_sli_7f630b0f.lo86)
 .data          0x0000000008154dc4        0x0 ssc_sli_r2017b_dsx86_32_2.a(ssc_sli_8a64c4e2.lo86)
 .data          0x0000000008154dc4        0x0 ssc_core_r2017b_dsx86_32_2.a(ssc_core_05058dd9.lo86)
 .data          0x0000000008154dc4        0x0 ssc_core_r2017b_dsx86_32_2.a(ssc_core_1c6b0332.lo86)
 .data          0x0000000008154dc4        0x0 ssc_core_r2017b_dsx86_32_2.a(ssc_core_2568b075.lo86)
 .data          0x0000000008154dc4        0x0 ssc_core_r2017b_dsx86_32_2.a(ssc_core_360a4baf.lo86)
 .data          0x0000000008154dc4        0x0 ssc_core_r2017b_dsx86_32_2.a(ssc_core_4965213d.lo86)
 .data          0x0000000008154dc4        0x0 ssc_core_r2017b_dsx86_32_2.a(ssc_core_67d1f118.lo86)
 .data          0x0000000008154dc4        0x0 ssc_core_r2017b_dsx86_32_2.a(ssc_core_6b6b89d2.lo86)
 .data          0x0000000008154dc4        0x0 ssc_core_r2017b_dsx86_32_2.a(ssc_core_6dd833f3.lo86)
 .data          0x0000000008154dc4        0x0 ssc_core_r2017b_dsx86_32_2.a(ssc_core_8569edc5.lo86)
 .data          0x0000000008154dc4        0x0 ssc_core_r2017b_dsx86_32_2.a(ssc_core_8a6471dc.lo86)
 .data          0x0000000008154dc4        0x0 ssc_core_r2017b_dsx86_32_2.a(ssc_core_97d767fe.lo86)
 .data          0x0000000008154dc4        0x0 ssc_core_r2017b_dsx86_32_2.a(ssc_core_a4d4c45e.lo86)
 .data          0x0000000008154dc4        0x0 ssc_core_r2017b_dsx86_32_2.a(ssc_core_abd5e7b4.lo86)
 .data          0x0000000008154dc4        0x0 ssc_core_r2017b_dsx86_32_2.a(ssc_core_acb64294.lo86)
 .data          0x0000000008154dc4        0x0 ssc_core_r2017b_dsx86_32_2.a(ssc_core_acb6462e.lo86)
 *fill*         0x0000000008154dc4       0x1c 
 .data          0x0000000008154de0       0x24 ssc_core_r2017b_dsx86_32_2.a(ssc_core_b1038cbb.lo86)
 .data          0x0000000008154e04        0x0 ssc_core_r2017b_dsx86_32_2.a(ssc_core_b10e34f4.lo86)
 .data          0x0000000008154e04        0x0 ssc_core_r2017b_dsx86_32_2.a(ssc_core_b2b3b239.lo86)
 .data          0x0000000008154e04        0x0 ssc_core_r2017b_dsx86_32_2.a(ssc_core_b402b40d.lo86)
 .data          0x0000000008154e04        0x0 ssc_core_r2017b_dsx86_32_2.a(ssc_core_bb0b2992.lo86)
 .data          0x0000000008154e04        0x0 ssc_core_r2017b_dsx86_32_2.a(ssc_core_c3003040.lo86)
 .data          0x0000000008154e04        0x0 ssc_core_r2017b_dsx86_32_2.a(ssc_core_c5b63cb2.lo86)
 .data          0x0000000008154e04        0x0 ssc_core_r2017b_dsx86_32_2.a(ssc_core_c607b660.lo86)
 .data          0x0000000008154e04        0x0 ssc_core_r2017b_dsx86_32_2.a(ssc_core_c8d83e88.lo86)
 .data          0x0000000008154e04        0x0 ssc_core_r2017b_dsx86_32_2.a(ssc_core_cab615c8.lo86)
 .data          0x0000000008154e04        0x0 ssc_core_r2017b_dsx86_32_2.a(ssc_core_cabdc251.lo86)
 .data          0x0000000008154e04        0x0 ssc_core_r2017b_dsx86_32_2.a(ssc_core_cc067f58.lo86)
 .data          0x0000000008154e04        0x0 ssc_core_r2017b_dsx86_32_2.a(ssc_core_d06d763c.lo86)
 .data          0x0000000008154e04        0x0 ssc_core_r2017b_dsx86_32_2.a(ssc_core_d3d34d7c.lo86)
 .data          0x0000000008154e04        0x0 ssc_core_r2017b_dsx86_32_2.a(ssc_core_d807fa59.lo86)
 .data          0x0000000008154e04        0x0 ssc_core_r2017b_dsx86_32_2.a(ssc_core_d9d13dac.lo86)
 .data          0x0000000008154e04        0x0 ssc_core_r2017b_dsx86_32_2.a(ssc_core_deb7fd8d.lo86)
 .data          0x0000000008154e04        0x0 ssc_core_r2017b_dsx86_32_2.a(ssc_core_e0d0866d.lo86)
 .data          0x0000000008154e04        0x0 ssc_core_r2017b_dsx86_32_2.a(ssc_core_e2b61d72.lo86)
 *fill*         0x0000000008154e04       0x1c 
 .data          0x0000000008154e20       0x40 ssc_core_r2017b_dsx86_32_2.a(ssc_core_e400c1c2.lo86)
                0x0000000008154e20                ssc_core_I0_CyOiADc_VeNAqMLy092
 .data          0x0000000008154e60       0x90 ssc_core_r2017b_dsx86_32_2.a(ssc_core_ee000fbe.lo86)
                0x0000000008154e60                ssc_core_z8JnA55sA_IR2MbuPWpVm1
 .data          0x0000000008154ef0        0x0 ssc_core_r2017b_dsx86_32_2.a(ssc_core_ee01086d.lo86)
 .data          0x0000000008154ef0        0x0 ssc_core_r2017b_dsx86_32_2.a(ssc_core_ee0f0141.lo86)
 .data          0x0000000008154ef0        0x0 ssc_core_r2017b_dsx86_32_2.a(ssc_core_f9b6dbed.lo86)
 .data          0x0000000008154ef0        0x0 ssc_core_r2017b_dsx86_32_2.a(ssc_core_fa09e9e6.lo86)
 .data          0x0000000008154ef0        0x8 ssc_core_r2017b_dsx86_32_2.a(ssc_core_fbd34e62.lo86)
 .data          0x0000000008154ef8        0x0 ssc_core_r2017b_dsx86_32_2.a(ssc_core_ff06d9a4.lo86)
 .data          0x0000000008154ef8        0x0 ssc_core_r2017b_dsx86_32_2.a(ssc_core_01dcc633.lo86)
 .data          0x0000000008154ef8        0x0 ssc_core_r2017b_dsx86_32_2.a(ssc_core_06ba68a6.lo86)
 .data          0x0000000008154ef8        0x0 ssc_core_r2017b_dsx86_32_2.a(ssc_core_0f019bd9.lo86)
 .data          0x0000000008154ef8        0x0 ssc_core_r2017b_dsx86_32_2.a(ssc_core_0f0420a6.lo86)
 .data          0x0000000008154ef8        0x0 ssc_core_r2017b_dsx86_32_2.a(ssc_core_1b0cafd5.lo86)
 .data          0x0000000008154ef8        0x0 ssc_core_r2017b_dsx86_32_2.a(ssc_core_3169e4b7.lo86)
 .data          0x0000000008154ef8        0x0 ssc_core_r2017b_dsx86_32_2.a(ssc_core_37d4ea84.lo86)
 .data          0x0000000008154ef8        0x0 ssc_core_r2017b_dsx86_32_2.a(ssc_core_40dfdbdc.lo86)
 .data          0x0000000008154ef8        0x0 ssc_core_r2017b_dsx86_32_2.a(ssc_core_41017299.lo86)
 .data          0x0000000008154ef8        0x0 ssc_core_r2017b_dsx86_32_2.a(ssc_core_4666b45b.lo86)
 .data          0x0000000008154ef8        0x0 ssc_core_r2017b_dsx86_32_2.a(ssc_core_48b1386a.lo86)
 .data          0x0000000008154ef8        0x0 ssc_core_r2017b_dsx86_32_2.a(ssc_core_4ad9135b.lo86)
 .data          0x0000000008154ef8        0x0 ssc_core_r2017b_dsx86_32_2.a(ssc_core_4db6bd68.lo86)
 .data          0x0000000008154ef8        0x0 ssc_core_r2017b_dsx86_32_2.a(ssc_core_4db86fcc.lo86)
 .data          0x0000000008154ef8        0x0 ssc_core_r2017b_dsx86_32_2.a(ssc_core_4e03e39d.lo86)
 .data          0x0000000008154ef8        0x0 ssc_core_r2017b_dsx86_32_2.a(ssc_core_54d55ae9.lo86)
 .data          0x0000000008154ef8        0x0 ssc_core_r2017b_dsx86_32_2.a(ssc_core_56b1a2bf.lo86)
 .data          0x0000000008154ef8        0x0 ssc_core_r2017b_dsx86_32_2.a(ssc_core_59b034b8.lo86)
 .data          0x0000000008154ef8        0x0 ssc_core_r2017b_dsx86_32_2.a(ssc_core_5d6ba758.lo86)
 .data          0x0000000008154ef8        0x0 ssc_core_r2017b_dsx86_32_2.a(ssc_core_68da074b.lo86)
 .data          0x0000000008154ef8        0x0 ssc_core_r2017b_dsx86_32_2.a(ssc_core_73d9c2b7.lo86)
 .data          0x0000000008154ef8        0x0 ssc_core_r2017b_dsx86_32_2.a(ssc_core_79dd08ab.lo86)
 .data          0x0000000008154ef8        0x0 ssc_core_r2017b_dsx86_32_2.a(ssc_core_7a613edb.lo86)
 .data          0x0000000008154ef8        0x0 ssc_core_r2017b_dsx86_32_2.a(ssc_core_83db8762.lo86)
 .data          0x0000000008154ef8        0x0 ssc_core_r2017b_dsx86_32_2.a(ssc_core_856738f2.lo86)
 .data          0x0000000008154ef8        0x0 ssc_core_r2017b_dsx86_32_2.a(ssc_core_8d0064b8.lo86)
 .data          0x0000000008154ef8        0x0 ssc_core_r2017b_dsx86_32_2.a(ssc_core_96061071.lo86)
 .data          0x0000000008154ef8        0x0 ssc_core_r2017b_dsx86_32_2.a(ssc_core_9c016445.lo86)
 .data          0x0000000008154ef8        0x0 ssc_core_r2017b_dsx86_32_2.a(ssc_core_9dd110ad.lo86)
 .data          0x0000000008154ef8        0x0 ssc_core_r2017b_dsx86_32_2.a(ssc_core_9fb0e229.lo86)
 .data          0x0000000008154ef8        0x0 ssc_core_r2017b_dsx86_32_2.a(ssc_core_9fb25b4f.lo86)
 .data          0x0000000008154ef8        0x0 ssc_core_r2017b_dsx86_32_2.a(ssc_core_a1d393be.lo86)
 .data          0x0000000008154ef8        0x0 ssc_core_r2017b_dsx86_32_2.a(ssc_core_a6b78ccc.lo86)
 .data          0x0000000008154ef8        0x0 ssc_core_r2017b_dsx86_32_2.a(ssc_core_a867d880.lo86)
 .data          0x0000000008154ef8        0x0 ssc_core_r2017b_dsx86_32_2.a(ssc_core_a9bf1ff2.lo86)
 .data          0x0000000008154ef8        0x0 ssc_core_r2017b_dsx86_32_2.a(ssc_core_abd05c18.lo86)
 .data          0x0000000008154ef8        0x0 ssc_core_r2017b_dsx86_32_2.a(ssc_core_b3671372.lo86)
 .data          0x0000000008154ef8        0x0 ssc_core_r2017b_dsx86_32_2.a(ssc_core_b7b88213.lo86)
 .data          0x0000000008154ef8        0x0 ssc_core_r2017b_dsx86_32_2.a(ssc_core_b96ebc21.lo86)
 .data          0x0000000008154ef8        0x0 ssc_core_r2017b_dsx86_32_2.a(ssc_core_c5b050d7.lo86)
 .data          0x0000000008154ef8        0x0 ssc_core_r2017b_dsx86_32_2.a(ssc_core_d70a6a09.lo86)
 .data          0x0000000008154ef8        0x0 ssc_core_r2017b_dsx86_32_2.a(ssc_core_dcda6edd.lo86)
 .data          0x0000000008154ef8        0x0 ssc_core_r2017b_dsx86_32_2.a(ssc_core_09b5fa6e.lo86)
 .data          0x0000000008154ef8        0x0 ssc_core_r2017b_dsx86_32_2.a(ssc_core_0bd666aa.lo86)
 .data          0x0000000008154ef8        0x0 ssc_core_r2017b_dsx86_32_2.a(ssc_core_76d825be.lo86)
 .data          0x0000000008154ef8        0x0 ssc_core_r2017b_dsx86_32_2.a(ssc_core_a4da1d0a.lo86)
 .data          0x0000000008154ef8        0x0 ssc_core_r2017b_dsx86_32_2.a(ssc_core_bc648043.lo86)
 .data          0x0000000008154ef8        0x0 ssc_core_r2017b_dsx86_32_2.a(ssc_core_ce6a84bb.lo86)
 .data          0x0000000008154ef8        0x0 ne_r2017b_dsx86_32_2.a(ne_59b4e14a.lo86)
 .data          0x0000000008154ef8        0x0 mc_r2017b_dsx86_32_2.a(mc_0bd30dee.lo86)
 .data          0x0000000008154ef8        0x0 mc_r2017b_dsx86_32_2.a(mc_110e6c6c.lo86)
 .data          0x0000000008154ef8        0x0 mc_r2017b_dsx86_32_2.a(mc_15d828ca.lo86)
 .data          0x0000000008154ef8        0x0 mc_r2017b_dsx86_32_2.a(mc_2565d6e0.lo86)
 .data          0x0000000008154ef8        0x0 mc_r2017b_dsx86_32_2.a(mc_47b8cebe.lo86)
 .data          0x0000000008154ef8        0x0 mc_r2017b_dsx86_32_2.a(mc_4b0301c6.lo86)
 .data          0x0000000008154ef8        0x0 mc_r2017b_dsx86_32_2.a(mc_52623861.lo86)
 .data          0x0000000008154ef8        0x0 mc_r2017b_dsx86_32_2.a(mc_53b1fc84.lo86)
 .data          0x0000000008154ef8        0x0 mc_r2017b_dsx86_32_2.a(mc_550847c3.lo86)
 .data          0x0000000008154ef8        0x0 mc_r2017b_dsx86_32_2.a(mc_5766048f.lo86)
 .data          0x0000000008154ef8        0x0 mc_r2017b_dsx86_32_2.a(mc_59b6e413.lo86)
 .data          0x0000000008154ef8        0x0 mc_r2017b_dsx86_32_2.a(mc_630dda0e.lo86)
 .data          0x0000000008154ef8        0x0 mc_r2017b_dsx86_32_2.a(mc_67da4f41.lo86)
 .data          0x0000000008154ef8        0x0 mc_r2017b_dsx86_32_2.a(mc_6b6d311a.lo86)
 .data          0x0000000008154ef8        0x0 mc_r2017b_dsx86_32_2.a(mc_7bbf41f0.lo86)
 .data          0x0000000008154ef8        0x0 mc_r2017b_dsx86_32_2.a(mc_7d0547c8.lo86)
 .data          0x0000000008154ef8        0x0 mc_r2017b_dsx86_32_2.a(mc_7d099de7.lo86)
 .data          0x0000000008154ef8        0x0 mc_r2017b_dsx86_32_2.a(mc_7eb21b39.lo86)
 .data          0x0000000008154ef8        0x0 mc_r2017b_dsx86_32_2.a(mc_81b5717e.lo86)
 .data          0x0000000008154ef8        0x0 mc_r2017b_dsx86_32_2.a(mc_89d597cf.lo86)
 .data          0x0000000008154ef8        0x0 mc_r2017b_dsx86_32_2.a(mc_90b6aa0a.lo86)
 .data          0x0000000008154ef8        0x0 mc_r2017b_dsx86_32_2.a(mc_9ab7d9b0.lo86)
 .data          0x0000000008154ef8       0x1c mc_r2017b_dsx86_32_2.a(mc_9b6c1529.lo86)
 .data          0x0000000008154f14        0x0 mc_r2017b_dsx86_32_2.a(mc_a2647600.lo86)
 .data          0x0000000008154f14        0x0 mc_r2017b_dsx86_32_2.a(mc_a26bab1a.lo86)
 .data          0x0000000008154f14        0x0 mc_r2017b_dsx86_32_2.a(mc_a3b90582.lo86)
 .data          0x0000000008154f14        0x0 mc_r2017b_dsx86_32_2.a(mc_a865d1dd.lo86)
 .data          0x0000000008154f14       0x1c mc_r2017b_dsx86_32_2.a(mc_acb3fad7.lo86)
 .data          0x0000000008154f30        0x0 mc_r2017b_dsx86_32_2.a(mc_af0cc4c9.lo86)
 .data          0x0000000008154f30        0x0 mc_r2017b_dsx86_32_2.a(mc_b0de9cbc.lo86)
 .data          0x0000000008154f30        0x0 mc_r2017b_dsx86_32_2.a(mc_b362c5eb.lo86)
 .data          0x0000000008154f30        0x0 mc_r2017b_dsx86_32_2.a(mc_b7b03d44.lo86)
 .data          0x0000000008154f30        0x0 mc_r2017b_dsx86_32_2.a(mc_b96a0bad.lo86)
 .data          0x0000000008154f30        0x0 mc_r2017b_dsx86_32_2.a(mc_bb0520ee.lo86)
 .data          0x0000000008154f30        0x0 mc_r2017b_dsx86_32_2.a(mc_bdbb9b78.lo86)
 .data          0x0000000008154f30        0x0 mc_r2017b_dsx86_32_2.a(mc_c8d25d23.lo86)
 .data          0x0000000008154f30        0x0 mc_r2017b_dsx86_32_2.a(mc_d20085b7.lo86)
 .data          0x0000000008154f30        0x0 mc_r2017b_dsx86_32_2.a(mc_d9d38185.lo86)
 .data          0x0000000008154f30        0x0 mc_r2017b_dsx86_32_2.a(mc_e7bc2f1a.lo86)
 .data          0x0000000008154f30        0x0 mc_r2017b_dsx86_32_2.a(mc_e969ae87.lo86)
 .data          0x0000000008154f30        0x0 mc_r2017b_dsx86_32_2.a(mc_edbf543c.lo86)
 .data          0x0000000008154f30        0x8 mc_r2017b_dsx86_32_2.a(mc_ee000fbe.lo86)
                0x0000000008154f30                mc_5YpKWqv65FwV7t0cG26tq2
 .data          0x0000000008154f38        0x0 mc_r2017b_dsx86_32_2.a(mc_efdea3a7.lo86)
 .data          0x0000000008154f38        0x0 mc_r2017b_dsx86_32_2.a(mc_f3be157c.lo86)
 .data          0x0000000008154f38        0x0 mc_r2017b_dsx86_32_2.a(mc_fcb15a9b.lo86)
 .data          0x0000000008154f38        0x0 mc_r2017b_dsx86_32_2.a(mc_fd619d14.lo86)
 .data          0x0000000008154f38        0x0 mc_r2017b_dsx86_32_2.a(mc_fd6341bb.lo86)
 .data          0x0000000008154f38        0x0 mc_r2017b_dsx86_32_2.a(mc_03b98f6f.lo86)
 .data          0x0000000008154f38        0x0 mc_r2017b_dsx86_32_2.a(mc_0d6fd085.lo86)
 .data          0x0000000008154f38        0x0 mc_r2017b_dsx86_32_2.a(mc_0ed73c49.lo86)
 .data          0x0000000008154f38        0x0 mc_r2017b_dsx86_32_2.a(mc_11086079.lo86)
 .data          0x0000000008154f38        0x0 mc_r2017b_dsx86_32_2.a(mc_15d12d95.lo86)
 .data          0x0000000008154f38        0x0 mc_r2017b_dsx86_32_2.a(mc_2cdc96b4.lo86)
 .data          0x0000000008154f38        0x0 mc_r2017b_dsx86_32_2.a(mc_32dc008a.lo86)
 .data          0x0000000008154f38        0x0 mc_r2017b_dsx86_32_2.a(mc_3e66abdf.lo86)
 .data          0x0000000008154f38        0x0 mc_r2017b_dsx86_32_2.a(mc_51d4094e.lo86)
 .data          0x0000000008154f38        0x0 mc_r2017b_dsx86_32_2.a(mc_52688a58.lo86)
 .data          0x0000000008154f38        0x0 mc_r2017b_dsx86_32_2.a(mc_5d65cd86.lo86)
 .data          0x0000000008154f38        0x0 mc_r2017b_dsx86_32_2.a(mc_67da200d.lo86)
 .data          0x0000000008154f38        0x0 mc_r2017b_dsx86_32_2.a(mc_6fb1c336.lo86)
 .data          0x0000000008154f38        0x0 mc_r2017b_dsx86_32_2.a(mc_7a613aec.lo86)
 .data          0x0000000008154f38        0x0 mc_r2017b_dsx86_32_2.a(mc_7cd58f0b.lo86)
 .data          0x0000000008154f38        0x0 mc_r2017b_dsx86_32_2.a(mc_7cdbe436.lo86)
 .data          0x0000000008154f38        0x0 mc_r2017b_dsx86_32_2.a(mc_870ec75e.lo86)
 .data          0x0000000008154f38        0x0 mc_r2017b_dsx86_32_2.a(mc_9b6376d1.lo86)
 .data          0x0000000008154f38        0x0 mc_r2017b_dsx86_32_2.a(mc_dbbb14d2.lo86)
 .data          0x0000000008154f38        0x0 mc_r2017b_dsx86_32_2.a(mc_dcdddfae.lo86)
 .data          0x0000000008154f38        0x0 mc_r2017b_dsx86_32_2.a(mc_debb448f.lo86)
 .data          0x0000000008154f38        0x0 mc_r2017b_dsx86_32_2.a(mc_220ba961.lo86)
 .data          0x0000000008154f38        0x0 ex_r2017b_dsx86_32_2.a(ex_04d5441d.lo86)
 .data          0x0000000008154f38        0x0 ex_r2017b_dsx86_32_2.a(ex_18b4440a.lo86)
 .data          0x0000000008154f38        0x0 ex_r2017b_dsx86_32_2.a(ex_8a6fc761.lo86)
 .data          0x0000000008154f38        0x0 pm_r2017b_dsx86_32_2.a(pm_09bc42e2.lo86)
 .data          0x0000000008154f38        0x0 pm_r2017b_dsx86_32_2.a(pm_14098e54.lo86)
 .data          0x0000000008154f38        0x0 pm_r2017b_dsx86_32_2.a(pm_26dc3230.lo86)
 .data          0x0000000008154f38        0x8 pm_r2017b_dsx86_32_2.a(pm_4fd5f5b9.lo86)
 .data          0x0000000008154f40        0x0 pm_r2017b_dsx86_32_2.a(pm_fed8c2c9.lo86)
 .data          0x0000000008154f40        0x0 C:\Program Files\dSPACE RCPHIL 2018-A\SCALEXIO\Lib\libm_fastpow.a(w_pow.o)
 .data          0x0000000008154f40        0x0 C:\Program Files\dSPACE RCPHIL 2018-A\SCALEXIO\Lib\libm_fastpow.a(e_pow.o)
 .data          0x0000000008154f40        0x0 c:/programdata/dspace/071346ea-bffa-4465-9551-2e48edf35320/compiler/qnx650_520/host/win32/x86/usr/bin/../lib/gcc/i486-pc-nto-qnx6.5.0/5.2.0/crtend.o
 .data          0x0000000008154f40        0x0 C:\ProgramData\dSPACE\071346ea-bffa-4465-9551-2e48edf35320\Compiler\QNX650_520\target\qnx6/x86/lib/crtn.o

.tm_clone_table
                0x0000000008154f40        0x0
 .tm_clone_table
                0x0000000008154f40        0x0 c:/programdata/dspace/071346ea-bffa-4465-9551-2e48edf35320/compiler/qnx650_520/host/win32/x86/usr/bin/../lib/gcc/i486-pc-nto-qnx6.5.0/5.2.0/crtbegin.o
 .tm_clone_table
                0x0000000008154f40        0x0 c:/programdata/dspace/071346ea-bffa-4465-9551-2e48edf35320/compiler/qnx650_520/host/win32/x86/usr/bin/../lib/gcc/i486-pc-nto-qnx6.5.0/5.2.0/crtend.o

.data1
 *(.data1)

.got            0x0000000008154f40      0x148
 *(.got.plt)
 .got.plt       0x0000000008154f40      0x130 C:\ProgramData\dSPACE\071346ea-bffa-4465-9551-2e48edf35320\Compiler\QNX650_520\target\qnx6/x86/lib/crt1.o
                0x0000000008154f40                _GLOBAL_OFFSET_TABLE_
 *(.igot.plt)
 .igot.plt      0x0000000008155070        0x0 C:\ProgramData\dSPACE\071346ea-bffa-4465-9551-2e48edf35320\Compiler\QNX650_520\target\qnx6/x86/lib/crt1.o
 *(.got)
 .got           0x0000000008155070       0x18 C:\ProgramData\dSPACE\071346ea-bffa-4465-9551-2e48edf35320\Compiler\QNX650_520\target\qnx6/x86/lib/crt1.o
 *(.igot)

.sdata
 *(.sdata .sdata.* .gnu.linkonce.s.*)
                0x0000000008155088                _edata = .
                [!provide]                        PROVIDE (edata, .)
                0x0000000008155088                . = .
                0x0000000008155088                __bss_start = .

.sbss
 *(.dynsbss)
 *(.sbss .sbss.* .gnu.linkonce.sb.*)
 *(.scommon)

.bss            0x00000000081550a0     0x6120
 *(.dynbss)
 .dynbss        0x00000000081550a0       0x4c C:\ProgramData\dSPACE\071346ea-bffa-4465-9551-2e48edf35320\Compiler\QNX650_520\target\qnx6/x86/lib/crt1.o
                0x00000000081550a0                errno
                0x00000000081550a4                _ZTI7DsCTask
                0x00000000081550b0                _ZTI14DsCApplication
                0x00000000081550c0                _ZTVN10__cxxabiv120__si_class_type_infoE
 *(.bss .bss.* .gnu.linkonce.b.*)
 .bss           0x00000000081550ec        0x0 C:\ProgramData\dSPACE\071346ea-bffa-4465-9551-2e48edf35320\Compiler\QNX650_520\target\qnx6/x86/lib/crt1.o
 .bss           0x00000000081550ec        0x0 C:\ProgramData\dSPACE\071346ea-bffa-4465-9551-2e48edf35320\Compiler\QNX650_520\target\qnx6/x86/lib/crti.o
 .bss           0x00000000081550ec       0x20 c:/programdata/dspace/071346ea-bffa-4465-9551-2e48edf35320/compiler/qnx650_520/host/win32/x86/usr/bin/../lib/gcc/i486-pc-nto-qnx6.5.0/5.2.0/crtbegin.o
 .bss           0x000000000815510c        0x0 mdladapter_mdlfunctions.o86
 .bss           0x000000000815510c        0x0 mdlCode_ap.o86
 .bss           0x000000000815510c       0x30 dssimengine_accesspoint.o86
                0x000000000815510c                xilApiEesPortTrigger
                0x0000000008155110                xilApiEesPortFlags
                0x0000000008155114                pXilApiEesPortErrorSwitching
                0x0000000008155118                pXilApiEesPortErrorActivated
                0x000000000815511c                pXilApiEesPortActiveErrorSet
                0x0000000008155120                pFailureSimulationRelaySwitching
                0x0000000008155124                pFailureSimulationSequenceCount
                0x0000000008155128                pFailureSimulationFailureActivated
                0x000000000815512c                pFailureSimulationFailureConfigured
                0x0000000008155130                pFailureSimulationClientConnected
                0x0000000008155134                pFuseRestoreRequest
                0x0000000008155138                pFuseActualStatus
 .bss           0x000000000815513c        0x0 dssimengine_api.o86
 .bss           0x000000000815513c        0x8 dssimengine_main.o86
                0x000000000815513c                _ZN18DsCApplicationMain11s_pInstanceE
                0x0000000008155140                ErrorList
 *fill*         0x0000000008155144        0x4 
 .bss           0x0000000008155148       0x1c rtosal_task.o86
                0x0000000008155148                StepCounter_Periodic_Task_2
                0x0000000008155150                RtosAlTaskSimTime_Periodic_Task_2
                0x0000000008155158                pRtosAlTimer_Periodic_Task_2
                0x000000000815515c                pRtosAlPeriodic_Task_2
                0x0000000008155160                _ZN24DsCRtosAlPeriodic_Task_211m_pInstanceE
 .bss           0x0000000008155164        0x0 rtosal_taskap.o86
 *fill*         0x0000000008155164       0x1c 
 .bss           0x0000000008155180       0x48 rtosal_simengineap.o86
                0x0000000008155180                Periodic_Task_2Vars_OvnCounter
                0x0000000008155180                Periodic_Task_2Vars
                0x0000000008155184                Periodic_Task_2Vars_TurnaroundTime
                0x000000000815518c                Periodic_Task_2Vars_Calls
                0x0000000008155194                Periodic_Task_2Vars_QueueCounter
                0x0000000008155198                Periodic_Task_2Vars_AbsoluteTime
 .bss           0x00000000081551c8        0x4 IOCode_Data.o86
                0x00000000081551c8                stla_mechanical_fcnModule_SIDRoot_TID0
 *fill*         0x00000000081551cc       0x14 
 .bss           0x00000000081551e0      0x15c mdlcfg_interapplcom.o86
                0x00000000081551e0                pDsComBundle
                0x00000000081551e4                pDsSendBuffer
                0x0000000008155200                bufElemOffsets_1
                0x0000000008155260                bufElemOffsets
 .bss           0x000000000815533c        0x0 rtosal_interapplcom.o86
 .bss           0x000000000815533c        0x4 STLA_MECHANICAL.a(STLA_MECHANICAL_dsrtmdlfcn.lo86)
                0x000000000815533c                DSRTStopSimulation
 .bss           0x0000000008155340        0x0 STLA_MECHANICAL.a(STLA_MECHANICAL_dsrttf.lo86)
 .bss           0x0000000008155340      0x290 STLA_MECHANICAL.a(STLA_MECHANICAL.lo86)
                0x0000000008155340                STLA_MECHANICAL_M_
                0x0000000008155360                STLA_MECHANICAL_B
                0x00000000081555ac                STLA_MECHANICAL_TimingBrdg
 .bss           0x00000000081555d0       0x30 STLA_MECHANICAL.a(STLA_MECHANICAL_data.lo86)
                0x00000000081555d0                rtP_x_sleeve_fork_play6_init
                0x00000000081555d8                rtP_x_sleeve_fork_play23_init
                0x00000000081555e0                rtP_en_cluGear_bypass
                0x00000000081555e8                rtP_en_clu2Trq_bypass
                0x00000000081555f0                rtP_en_clu1Trq_bypass
                0x00000000081555f8                rtP_en_clu0Trq_bypass
 .bss           0x0000000008155600        0xc STLA_MECHANICAL.a(STLA_MECHANICAL_dsrtvdf.lo86)
                0x0000000008155600                p_0_STLA_MECHANICAL_real_T_0
                0x0000000008155604                p_0_STLA_MECHANICAL_int16_T_1
                0x0000000008155608                p_0_STLA_MECHANICAL_uint8_T_2
 *fill*         0x000000000815560c       0x14 
 .bss           0x0000000008155620     0x5500 Punch_mechanical_B_sample_v3_6_cal_v2_C_rtwlib.lib(Punch_mechanical_B_sample_v3_6_cal_v2_C.lo86)
                0x0000000008155620                Punch_mechanical_B_sample_v3_6_cal_v2_C_DW
                0x00000000081569a0                Punch_mechanical_B_sample_v3_6_cal_v2_C_B
                0x000000000815a6fc                Punch_mechanical_B_sample_v3_6_cal_v2_C_MdlrefDW
                0x000000000815a700                Punch_mechanical_B_sample_v3_6_cal_v2_C_TimingBrdg
                0x000000000815a704                Punch_mechanical_B_sample_v3_6_cal_v2_C_GlobalTID
 .bss           0x000000000815ab20       0x24 Punch_mechanical_B_sample_v3_6_cal_v2_C_rtwlib.lib(Punch_mechanical_B_sample_v3_6_cal_v2_C_dsrtvdf.lo86)
                0x000000000815ab20                p_0_Punch_mechanical_B_sample_v3_6_cal_v2_C_real_T_0
                0x000000000815ab24                p_0_Punch_mechanical_B_sample_v3_6_cal_v2_C_uint8_T_1
                0x000000000815ab28                p_0_Punch_mechanical_B_sample_v3_6_cal_v2_C_boolean_T_2
                0x000000000815ab2c                p_2_Punch_mechanical_B_sample_v3_6_cal_v2_C_real_T_0
                0x000000000815ab30                p_2_Punch_mechanical_B_sample_v3_6_cal_v2_C_uint32_T_1
                0x000000000815ab34                p_3_Punch_mechanical_B_sample_v3_6_cal_v2_C_real_T_0
                0x000000000815ab38                p_3_Punch_mechanical_B_sample_v3_6_cal_v2_C_uint32_T_2
                0x000000000815ab3c                p_3_Punch_mechanical_B_sample_v3_6_cal_v2_C_int_T_3
                0x000000000815ab40                p_3_Punch_mechanical_B_sample_v3_6_cal_v2_C_boolean_T_4
 .bss           0x000000000815ab44        0x0 Punch_mechanical_B_sample_v3_6_cal_v2_C_rtwlib.lib(Punch_mechanical_B_sample_v3_6_cal_v2_C_9a4b384b_1_gateway.lo86)
 .bss           0x000000000815ab44       0x1c Punch_mechanical_B_sample_v3_6_cal_v2_C_rtwlib.lib(Punch_mechanical_B_sample_v3_6_cal_v2_C_9a4b384b_1.lo86)
 .bss           0x000000000815ab60      0x600 Punch_mechanical_B_sample_v3_6_cal_v2_C_rtwlib.lib(Punch_mechanical_B_sample_v3_6_cal_v2_C_9a4b384b_1_ds.lo86)
 .bss           0x000000000815b160        0x0 Punch_mechanical_B_sample_v3_6_cal_v2_C_rtwlib.lib(Punch_mechanical_B_sample_v3_6_cal_v2_C_9a4b384b_1_ds_cache_i.lo86)
 .bss           0x000000000815b160        0x0 Punch_mechanical_B_sample_v3_6_cal_v2_C_rtwlib.lib(Punch_mechanical_B_sample_v3_6_cal_v2_C_9a4b384b_1_ds_assert.lo86)
 .bss           0x000000000815b160        0x0 Punch_mechanical_B_sample_v3_6_cal_v2_C_rtwlib.lib(Punch_mechanical_B_sample_v3_6_cal_v2_C_9a4b384b_1_ds_q1.lo86)
 .bss           0x000000000815b160        0x0 Punch_mechanical_B_sample_v3_6_cal_v2_C_rtwlib.lib(Punch_mechanical_B_sample_v3_6_cal_v2_C_9a4b384b_1_ds_dxf_p.lo86)
 .bss           0x000000000815b160        0x0 Punch_mechanical_B_sample_v3_6_cal_v2_C_rtwlib.lib(Punch_mechanical_B_sample_v3_6_cal_v2_C_9a4b384b_1_ds_dxm_p.lo86)
 .bss           0x000000000815b160        0x0 Punch_mechanical_B_sample_v3_6_cal_v2_C_rtwlib.lib(Punch_mechanical_B_sample_v3_6_cal_v2_C_9a4b384b_1_ds_dxdelt_p.lo86)
 .bss           0x000000000815b160        0x0 Punch_mechanical_B_sample_v3_6_cal_v2_C_rtwlib.lib(Punch_mechanical_B_sample_v3_6_cal_v2_C_9a4b384b_1_ds_f.lo86)
 .bss           0x000000000815b160        0x0 Punch_mechanical_B_sample_v3_6_cal_v2_C_rtwlib.lib(Punch_mechanical_B_sample_v3_6_cal_v2_C_9a4b384b_1_ds_update_i.lo86)
 .bss           0x000000000815b160        0x0 Punch_mechanical_B_sample_v3_6_cal_v2_C_rtwlib.lib(Punch_mechanical_B_sample_v3_6_cal_v2_C_9a4b384b_1_ds_qx_p.lo86)
 .bss           0x000000000815b160        0x0 Punch_mechanical_B_sample_v3_6_cal_v2_C_rtwlib.lib(Punch_mechanical_B_sample_v3_6_cal_v2_C_9a4b384b_1_ds_dxf.lo86)
 .bss           0x000000000815b160        0x0 Punch_mechanical_B_sample_v3_6_cal_v2_C_rtwlib.lib(Punch_mechanical_B_sample_v3_6_cal_v2_C_9a4b384b_1_ds_duf.lo86)
 .bss           0x000000000815b160        0x0 Punch_mechanical_B_sample_v3_6_cal_v2_C_rtwlib.lib(Punch_mechanical_B_sample_v3_6_cal_v2_C_9a4b384b_1_ds_obs_act.lo86)
 .bss           0x000000000815b160        0x0 Punch_mechanical_B_sample_v3_6_cal_v2_C_rtwlib.lib(Punch_mechanical_B_sample_v3_6_cal_v2_C_9a4b384b_1_ds_a.lo86)
 .bss           0x000000000815b160        0x0 Punch_mechanical_B_sample_v3_6_cal_v2_C_rtwlib.lib(Punch_mechanical_B_sample_v3_6_cal_v2_C_9a4b384b_1_ds_obs_exp.lo86)
 .bss           0x000000000815b160        0x0 Punch_mechanical_B_sample_v3_6_cal_v2_C_rtwlib.lib(Punch_mechanical_B_sample_v3_6_cal_v2_C_9a4b384b_1_ds_a_p.lo86)
 .bss           0x000000000815b160        0x0 Punch_mechanical_B_sample_v3_6_cal_v2_C_rtwlib.lib(Punch_mechanical_B_sample_v3_6_cal_v2_C_9a4b384b_1_ds_tdxf_p.lo86)
 .bss           0x000000000815b160        0x0 Punch_mechanical_B_sample_v3_6_cal_v2_C_rtwlib.lib(Punch_mechanical_B_sample_v3_6_cal_v2_C_9a4b384b_1_ds_qx.lo86)
 .bss           0x000000000815b160        0x0 Punch_mechanical_B_sample_v3_6_cal_v2_C_rtwlib.lib(Punch_mechanical_B_sample_v3_6_cal_v2_C_9a4b384b_1_ds_vmf.lo86)
 .bss           0x000000000815b160        0x0 Punch_mechanical_B_sample_v3_6_cal_v2_C_rtwlib.lib(Punch_mechanical_B_sample_v3_6_cal_v2_C_9a4b384b_1_ds_slf.lo86)
 .bss           0x000000000815b160        0x0 Punch_mechanical_B_sample_v3_6_cal_v2_C_rtwlib.lib(Punch_mechanical_B_sample_v3_6_cal_v2_C_9a4b384b_1_ds_ic.lo86)
 .bss           0x000000000815b160        0x0 Punch_mechanical_B_sample_v3_6_cal_v2_C_rtwlib.lib(Punch_mechanical_B_sample_v3_6_cal_v2_C_9a4b384b_1_ds_dxicr_p.lo86)
 .bss           0x000000000815b160        0x0 Punch_mechanical_B_sample_v3_6_cal_v2_C_rtwlib.lib(Punch_mechanical_B_sample_v3_6_cal_v2_C_9a4b384b_1_ds_log.lo86)
 .bss           0x000000000815b160        0x0 Punch_mechanical_B_sample_v3_6_cal_v2_C_rtwlib.lib(Punch_mechanical_B_sample_v3_6_cal_v2_C_9a4b384b_1_ds_m.lo86)
 .bss           0x000000000815b160        0x0 Punch_mechanical_B_sample_v3_6_cal_v2_C_rtwlib.lib(Punch_mechanical_B_sample_v3_6_cal_v2_C_9a4b384b_1_ds_m_p.lo86)
 .bss           0x000000000815b160        0x0 Punch_mechanical_B_sample_v3_6_cal_v2_C_rtwlib.lib(Punch_mechanical_B_sample_v3_6_cal_v2_C_9a4b384b_1_ds_vmm.lo86)
 .bss           0x000000000815b160        0x0 Punch_mechanical_B_sample_v3_6_cal_v2_C_rtwlib.lib(Punch_mechanical_B_sample_v3_6_cal_v2_C_9a4b384b_1_ds_mode.lo86)
 .bss           0x000000000815b160        0x0 Punch_mechanical_B_sample_v3_6_cal_v2_C_rtwlib.lib(Punch_mechanical_B_sample_v3_6_cal_v2_C_9a4b384b_1_ds_obs_all.lo86)
 .bss           0x000000000815b160        0x0 Punch_mechanical_B_sample_v3_6_cal_v2_C_rtwlib.lib(Punch_mechanical_B_sample_v3_6_cal_v2_C_9a4b384b_1_ds_q1_p.lo86)
 .bss           0x000000000815b160        0x0 Punch_mechanical_B_sample_v3_6_cal_v2_C_rtwlib.lib(Punch_mechanical_B_sample_v3_6_cal_v2_C_9a4b384b_1_ds_var_tol.lo86)
 .bss           0x000000000815b160        0x0 Punch_mechanical_B_sample_v3_6_cal_v2_C_rtwlib.lib(Punch_mechanical_B_sample_v3_6_cal_v2_C_9a4b384b_1_ds_eq_tol.lo86)
 .bss           0x000000000815b160        0x0 Punch_mechanical_B_sample_v3_6_cal_v2_C_rtwlib.lib(Punch_mechanical_B_sample_v3_6_cal_v2_C_9a4b384b_1_ds_lv.lo86)
 .bss           0x000000000815b160        0x0 Punch_mechanical_B_sample_v3_6_cal_v2_C_rtwlib.lib(Punch_mechanical_B_sample_v3_6_cal_v2_C_9a4b384b_1_ds_slv.lo86)
 .bss           0x000000000815b160        0x0 Punch_mechanical_B_sample_v3_6_cal_v2_C_rtwlib.lib(Punch_mechanical_B_sample_v3_6_cal_v2_C_9a4b384b_1_ds_y.lo86)
 .bss           0x000000000815b160        0x0 Punch_mechanical_B_sample_v3_6_cal_v2_C_rtwlib.lib(Punch_mechanical_B_sample_v3_6_cal_v2_C_9a4b384b_1_ds_dxy.lo86)
 .bss           0x000000000815b160        0x0 Punch_mechanical_B_sample_v3_6_cal_v2_C_rtwlib.lib(Punch_mechanical_B_sample_v3_6_cal_v2_C_9a4b384b_1_ds_dxy_p.lo86)
 .bss           0x000000000815b160        0x0 Punch_mechanical_B_sample_v3_6_cal_v2_C_rtwlib.lib(Punch_mechanical_B_sample_v3_6_cal_v2_C_9a4b384b_1_ds_mdxy_p.lo86)
 .bss           0x000000000815b160        0x0 Punch_mechanical_B_sample_v3_6_cal_v2_C_rtwlib.lib(Punch_mechanical_B_sample_v3_6_cal_v2_C_9a4b384b_1_ds_tdxy_p.lo86)
 .bss           0x000000000815b160        0x0 Punch_mechanical_B_sample_v3_6_cal_v2_C_rtwlib.lib(Punch_mechanical_B_sample_v3_6_cal_v2_C_9a4b384b_1_ds_zc.lo86)
 .bss           0x000000000815b160        0x0 rtwshared.lib(look1_pbinlcapw.lo86)
 .bss           0x000000000815b160        0x0 rtwshared.lib(look2_pbinlcapw.lo86)
 .bss           0x000000000815b160        0x0 rtwshared.lib(rt_backsubrr_dbl.lo86)
 .bss           0x000000000815b160        0x0 rtwshared.lib(rt_forwardsubrr_dbl.lo86)
 .bss           0x000000000815b160        0x0 rtwshared.lib(rt_lu_real.lo86)
 .bss           0x000000000815b160       0x28 rtwshared.lib(rt_nonfinite.lo86)
                0x000000000815b160                rtNaNF
                0x000000000815b164                rtMinusInfF
                0x000000000815b168                rtInfF
                0x000000000815b170                rtNaN
                0x000000000815b178                rtMinusInf
                0x000000000815b180                rtInf
 .bss           0x000000000815b188        0x0 rtwshared.lib(rtGetInf.lo86)
 .bss           0x000000000815b188        0x0 rtwshared.lib(rtGetNaN.lo86)
 .bss           0x000000000815b188        0x4 ssc_sli_r2017b_dsx86_32_2.a(ssc_sli_0bd269e6.lo86)
 .bss           0x000000000815b18c        0x0 ssc_sli_r2017b_dsx86_32_2.a(ssc_sli_5a0cb974.lo86)
 .bss           0x000000000815b18c        0x0 ssc_sli_r2017b_dsx86_32_2.a(ssc_sli_c7dda239.lo86)
 .bss           0x000000000815b18c        0x0 ssc_sli_r2017b_dsx86_32_2.a(ssc_sli_fbdf29da.lo86)
 .bss           0x000000000815b18c        0x0 ssc_sli_r2017b_dsx86_32_2.a(ssc_sli_fa0ce53e.lo86)
 .bss           0x000000000815b18c        0x4 ssc_sli_r2017b_dsx86_32_2.a(ssc_sli_550a4805.lo86)
 .bss           0x000000000815b190        0x0 ssc_sli_r2017b_dsx86_32_2.a(ssc_sli_89d0f30a.lo86)
 .bss           0x000000000815b190        0x0 ssc_sli_r2017b_dsx86_32_2.a(ssc_sli_9c030181.lo86)
 .bss           0x000000000815b190        0x0 ssc_sli_r2017b_dsx86_32_2.a(ssc_sli_dcd66f69.lo86)
 .bss           0x000000000815b190        0x0 ssc_sli_r2017b_dsx86_32_2.a(ssc_sli_eb0a5702.lo86)
 .bss           0x000000000815b190        0x0 ssc_sli_r2017b_dsx86_32_2.a(ssc_sli_0763c151.lo86)
 .bss           0x000000000815b190        0x0 ssc_sli_r2017b_dsx86_32_2.a(ssc_sli_360cfd63.lo86)
 .bss           0x000000000815b190        0x0 ssc_sli_r2017b_dsx86_32_2.a(ssc_sli_43618287.lo86)
 .bss           0x000000000815b190        0x0 ssc_sli_r2017b_dsx86_32_2.a(ssc_sli_466b08dd.lo86)
 .bss           0x000000000815b190        0x0 ssc_sli_r2017b_dsx86_32_2.a(ssc_sli_4e028390.lo86)
 .bss           0x000000000815b190        0x0 ssc_sli_r2017b_dsx86_32_2.a(ssc_sli_51dbd3b5.lo86)
 .bss           0x000000000815b190        0x0 ssc_sli_r2017b_dsx86_32_2.a(ssc_sli_62d81790.lo86)
 .bss           0x000000000815b190        0x0 ssc_sli_r2017b_dsx86_32_2.a(ssc_sli_77063d8b.lo86)
 .bss           0x000000000815b190        0x0 ssc_sli_r2017b_dsx86_32_2.a(ssc_sli_7a618260.lo86)
 .bss           0x000000000815b190        0x0 ssc_sli_r2017b_dsx86_32_2.a(ssc_sli_7f630b0f.lo86)
 .bss           0x000000000815b190        0x0 ssc_sli_r2017b_dsx86_32_2.a(ssc_sli_8a64c4e2.lo86)
 .bss           0x000000000815b190        0x0 ssc_core_r2017b_dsx86_32_2.a(ssc_core_05058dd9.lo86)
 .bss           0x000000000815b190        0x4 ssc_core_r2017b_dsx86_32_2.a(ssc_core_1c6b0332.lo86)
 .bss           0x000000000815b194        0x0 ssc_core_r2017b_dsx86_32_2.a(ssc_core_2568b075.lo86)
 .bss           0x000000000815b194        0x0 ssc_core_r2017b_dsx86_32_2.a(ssc_core_360a4baf.lo86)
 .bss           0x000000000815b194        0x0 ssc_core_r2017b_dsx86_32_2.a(ssc_core_4965213d.lo86)
 .bss           0x000000000815b194        0x0 ssc_core_r2017b_dsx86_32_2.a(ssc_core_67d1f118.lo86)
 .bss           0x000000000815b194        0x0 ssc_core_r2017b_dsx86_32_2.a(ssc_core_6b6b89d2.lo86)
 .bss           0x000000000815b194        0x0 ssc_core_r2017b_dsx86_32_2.a(ssc_core_6dd833f3.lo86)
 .bss           0x000000000815b194        0x0 ssc_core_r2017b_dsx86_32_2.a(ssc_core_8569edc5.lo86)
 .bss           0x000000000815b194        0x0 ssc_core_r2017b_dsx86_32_2.a(ssc_core_8a6471dc.lo86)
 .bss           0x000000000815b194        0x4 ssc_core_r2017b_dsx86_32_2.a(ssc_core_97d767fe.lo86)
 .bss           0x000000000815b198        0x0 ssc_core_r2017b_dsx86_32_2.a(ssc_core_a4d4c45e.lo86)
 .bss           0x000000000815b198        0x0 ssc_core_r2017b_dsx86_32_2.a(ssc_core_abd5e7b4.lo86)
 .bss           0x000000000815b198        0x0 ssc_core_r2017b_dsx86_32_2.a(ssc_core_acb64294.lo86)
 .bss           0x000000000815b198        0x0 ssc_core_r2017b_dsx86_32_2.a(ssc_core_acb6462e.lo86)
 .bss           0x000000000815b198        0x0 ssc_core_r2017b_dsx86_32_2.a(ssc_core_b1038cbb.lo86)
 .bss           0x000000000815b198        0x0 ssc_core_r2017b_dsx86_32_2.a(ssc_core_b10e34f4.lo86)
 .bss           0x000000000815b198        0x0 ssc_core_r2017b_dsx86_32_2.a(ssc_core_b2b3b239.lo86)
 .bss           0x000000000815b198        0x0 ssc_core_r2017b_dsx86_32_2.a(ssc_core_b402b40d.lo86)
 .bss           0x000000000815b198        0x0 ssc_core_r2017b_dsx86_32_2.a(ssc_core_bb0b2992.lo86)
 .bss           0x000000000815b198        0x0 ssc_core_r2017b_dsx86_32_2.a(ssc_core_c3003040.lo86)
 .bss           0x000000000815b198        0x0 ssc_core_r2017b_dsx86_32_2.a(ssc_core_c5b63cb2.lo86)
 .bss           0x000000000815b198        0x0 ssc_core_r2017b_dsx86_32_2.a(ssc_core_c607b660.lo86)
 .bss           0x000000000815b198        0x0 ssc_core_r2017b_dsx86_32_2.a(ssc_core_c8d83e88.lo86)
 .bss           0x000000000815b198        0x0 ssc_core_r2017b_dsx86_32_2.a(ssc_core_cab615c8.lo86)
 .bss           0x000000000815b198        0x0 ssc_core_r2017b_dsx86_32_2.a(ssc_core_cabdc251.lo86)
 .bss           0x000000000815b198        0x0 ssc_core_r2017b_dsx86_32_2.a(ssc_core_cc067f58.lo86)
 .bss           0x000000000815b198        0x0 ssc_core_r2017b_dsx86_32_2.a(ssc_core_d06d763c.lo86)
 .bss           0x000000000815b198        0x0 ssc_core_r2017b_dsx86_32_2.a(ssc_core_d3d34d7c.lo86)
 .bss           0x000000000815b198        0x0 ssc_core_r2017b_dsx86_32_2.a(ssc_core_d807fa59.lo86)
 .bss           0x000000000815b198        0x0 ssc_core_r2017b_dsx86_32_2.a(ssc_core_d9d13dac.lo86)
 .bss           0x000000000815b198        0x0 ssc_core_r2017b_dsx86_32_2.a(ssc_core_deb7fd8d.lo86)
 .bss           0x000000000815b198        0x0 ssc_core_r2017b_dsx86_32_2.a(ssc_core_e0d0866d.lo86)
 .bss           0x000000000815b198        0x0 ssc_core_r2017b_dsx86_32_2.a(ssc_core_e2b61d72.lo86)
 .bss           0x000000000815b198        0x0 ssc_core_r2017b_dsx86_32_2.a(ssc_core_e400c1c2.lo86)
 .bss           0x000000000815b198        0x0 ssc_core_r2017b_dsx86_32_2.a(ssc_core_ee000fbe.lo86)
 .bss           0x000000000815b198        0x0 ssc_core_r2017b_dsx86_32_2.a(ssc_core_ee01086d.lo86)
 .bss           0x000000000815b198        0x0 ssc_core_r2017b_dsx86_32_2.a(ssc_core_ee0f0141.lo86)
 .bss           0x000000000815b198        0x0 ssc_core_r2017b_dsx86_32_2.a(ssc_core_f9b6dbed.lo86)
 .bss           0x000000000815b198        0x0 ssc_core_r2017b_dsx86_32_2.a(ssc_core_fa09e9e6.lo86)
 .bss           0x000000000815b198        0x0 ssc_core_r2017b_dsx86_32_2.a(ssc_core_fbd34e62.lo86)
 .bss           0x000000000815b198        0x0 ssc_core_r2017b_dsx86_32_2.a(ssc_core_ff06d9a4.lo86)
 .bss           0x000000000815b198        0x0 ssc_core_r2017b_dsx86_32_2.a(ssc_core_01dcc633.lo86)
 .bss           0x000000000815b198        0x0 ssc_core_r2017b_dsx86_32_2.a(ssc_core_06ba68a6.lo86)
 .bss           0x000000000815b198        0x0 ssc_core_r2017b_dsx86_32_2.a(ssc_core_0f019bd9.lo86)
 .bss           0x000000000815b198        0x0 ssc_core_r2017b_dsx86_32_2.a(ssc_core_0f0420a6.lo86)
 .bss           0x000000000815b198        0x0 ssc_core_r2017b_dsx86_32_2.a(ssc_core_1b0cafd5.lo86)
 .bss           0x000000000815b198        0x0 ssc_core_r2017b_dsx86_32_2.a(ssc_core_3169e4b7.lo86)
 .bss           0x000000000815b198        0x0 ssc_core_r2017b_dsx86_32_2.a(ssc_core_37d4ea84.lo86)
 .bss           0x000000000815b198        0x0 ssc_core_r2017b_dsx86_32_2.a(ssc_core_40dfdbdc.lo86)
 .bss           0x000000000815b198        0x0 ssc_core_r2017b_dsx86_32_2.a(ssc_core_41017299.lo86)
 .bss           0x000000000815b198        0x0 ssc_core_r2017b_dsx86_32_2.a(ssc_core_4666b45b.lo86)
 .bss           0x000000000815b198        0x0 ssc_core_r2017b_dsx86_32_2.a(ssc_core_48b1386a.lo86)
 .bss           0x000000000815b198        0x0 ssc_core_r2017b_dsx86_32_2.a(ssc_core_4ad9135b.lo86)
 .bss           0x000000000815b198        0x0 ssc_core_r2017b_dsx86_32_2.a(ssc_core_4db6bd68.lo86)
 .bss           0x000000000815b198        0x0 ssc_core_r2017b_dsx86_32_2.a(ssc_core_4db86fcc.lo86)
 .bss           0x000000000815b198        0x0 ssc_core_r2017b_dsx86_32_2.a(ssc_core_4e03e39d.lo86)
 .bss           0x000000000815b198        0x0 ssc_core_r2017b_dsx86_32_2.a(ssc_core_54d55ae9.lo86)
 .bss           0x000000000815b198        0x0 ssc_core_r2017b_dsx86_32_2.a(ssc_core_56b1a2bf.lo86)
 .bss           0x000000000815b198        0x0 ssc_core_r2017b_dsx86_32_2.a(ssc_core_59b034b8.lo86)
 .bss           0x000000000815b198        0x0 ssc_core_r2017b_dsx86_32_2.a(ssc_core_5d6ba758.lo86)
 .bss           0x000000000815b198        0x0 ssc_core_r2017b_dsx86_32_2.a(ssc_core_68da074b.lo86)
 .bss           0x000000000815b198        0x0 ssc_core_r2017b_dsx86_32_2.a(ssc_core_73d9c2b7.lo86)
 .bss           0x000000000815b198        0x0 ssc_core_r2017b_dsx86_32_2.a(ssc_core_79dd08ab.lo86)
 .bss           0x000000000815b198        0x0 ssc_core_r2017b_dsx86_32_2.a(ssc_core_7a613edb.lo86)
 .bss           0x000000000815b198        0x0 ssc_core_r2017b_dsx86_32_2.a(ssc_core_83db8762.lo86)
 .bss           0x000000000815b198        0x8 ssc_core_r2017b_dsx86_32_2.a(ssc_core_856738f2.lo86)
 .bss           0x000000000815b1a0        0x0 ssc_core_r2017b_dsx86_32_2.a(ssc_core_8d0064b8.lo86)
 .bss           0x000000000815b1a0        0x0 ssc_core_r2017b_dsx86_32_2.a(ssc_core_96061071.lo86)
 .bss           0x000000000815b1a0        0x4 ssc_core_r2017b_dsx86_32_2.a(ssc_core_9c016445.lo86)
 .bss           0x000000000815b1a4        0x0 ssc_core_r2017b_dsx86_32_2.a(ssc_core_9dd110ad.lo86)
 .bss           0x000000000815b1a4        0x0 ssc_core_r2017b_dsx86_32_2.a(ssc_core_9fb0e229.lo86)
 .bss           0x000000000815b1a4        0x0 ssc_core_r2017b_dsx86_32_2.a(ssc_core_9fb25b4f.lo86)
 .bss           0x000000000815b1a4        0x0 ssc_core_r2017b_dsx86_32_2.a(ssc_core_a1d393be.lo86)
 .bss           0x000000000815b1a4        0x0 ssc_core_r2017b_dsx86_32_2.a(ssc_core_a6b78ccc.lo86)
 .bss           0x000000000815b1a4        0x0 ssc_core_r2017b_dsx86_32_2.a(ssc_core_a867d880.lo86)
 .bss           0x000000000815b1a4        0x0 ssc_core_r2017b_dsx86_32_2.a(ssc_core_a9bf1ff2.lo86)
 .bss           0x000000000815b1a4        0x0 ssc_core_r2017b_dsx86_32_2.a(ssc_core_abd05c18.lo86)
 .bss           0x000000000815b1a4        0x0 ssc_core_r2017b_dsx86_32_2.a(ssc_core_b3671372.lo86)
 .bss           0x000000000815b1a4        0x0 ssc_core_r2017b_dsx86_32_2.a(ssc_core_b7b88213.lo86)
 .bss           0x000000000815b1a4        0x0 ssc_core_r2017b_dsx86_32_2.a(ssc_core_b96ebc21.lo86)
 .bss           0x000000000815b1a4        0x0 ssc_core_r2017b_dsx86_32_2.a(ssc_core_c5b050d7.lo86)
 .bss           0x000000000815b1a4        0x0 ssc_core_r2017b_dsx86_32_2.a(ssc_core_d70a6a09.lo86)
 .bss           0x000000000815b1a4        0x0 ssc_core_r2017b_dsx86_32_2.a(ssc_core_dcda6edd.lo86)
 .bss           0x000000000815b1a4        0x0 ssc_core_r2017b_dsx86_32_2.a(ssc_core_09b5fa6e.lo86)
 .bss           0x000000000815b1a4        0x0 ssc_core_r2017b_dsx86_32_2.a(ssc_core_0bd666aa.lo86)
 .bss           0x000000000815b1a4        0x0 ssc_core_r2017b_dsx86_32_2.a(ssc_core_76d825be.lo86)
 .bss           0x000000000815b1a4        0x0 ssc_core_r2017b_dsx86_32_2.a(ssc_core_a4da1d0a.lo86)
 .bss           0x000000000815b1a4        0x0 ssc_core_r2017b_dsx86_32_2.a(ssc_core_bc648043.lo86)
 .bss           0x000000000815b1a4        0x0 ssc_core_r2017b_dsx86_32_2.a(ssc_core_ce6a84bb.lo86)
 .bss           0x000000000815b1a4        0x0 ne_r2017b_dsx86_32_2.a(ne_59b4e14a.lo86)
 .bss           0x000000000815b1a4        0x0 mc_r2017b_dsx86_32_2.a(mc_0bd30dee.lo86)
 .bss           0x000000000815b1a4        0x0 mc_r2017b_dsx86_32_2.a(mc_110e6c6c.lo86)
 .bss           0x000000000815b1a4        0x0 mc_r2017b_dsx86_32_2.a(mc_15d828ca.lo86)
 .bss           0x000000000815b1a4        0x0 mc_r2017b_dsx86_32_2.a(mc_2565d6e0.lo86)
 .bss           0x000000000815b1a4       0x1c mc_r2017b_dsx86_32_2.a(mc_47b8cebe.lo86)
 .bss           0x000000000815b1c0        0x0 mc_r2017b_dsx86_32_2.a(mc_4b0301c6.lo86)
 .bss           0x000000000815b1c0        0x0 mc_r2017b_dsx86_32_2.a(mc_52623861.lo86)
 .bss           0x000000000815b1c0        0x0 mc_r2017b_dsx86_32_2.a(mc_53b1fc84.lo86)
 .bss           0x000000000815b1c0        0x0 mc_r2017b_dsx86_32_2.a(mc_550847c3.lo86)
 .bss           0x000000000815b1c0        0x0 mc_r2017b_dsx86_32_2.a(mc_5766048f.lo86)
 .bss           0x000000000815b1c0        0x0 mc_r2017b_dsx86_32_2.a(mc_59b6e413.lo86)
 .bss           0x000000000815b1c0        0x0 mc_r2017b_dsx86_32_2.a(mc_630dda0e.lo86)
 .bss           0x000000000815b1c0        0x0 mc_r2017b_dsx86_32_2.a(mc_67da4f41.lo86)
 .bss           0x000000000815b1c0        0x0 mc_r2017b_dsx86_32_2.a(mc_6b6d311a.lo86)
 .bss           0x000000000815b1c0        0x0 mc_r2017b_dsx86_32_2.a(mc_7bbf41f0.lo86)
 .bss           0x000000000815b1c0        0x0 mc_r2017b_dsx86_32_2.a(mc_7d0547c8.lo86)
 .bss           0x000000000815b1c0        0x0 mc_r2017b_dsx86_32_2.a(mc_7d099de7.lo86)
 .bss           0x000000000815b1c0        0x0 mc_r2017b_dsx86_32_2.a(mc_7eb21b39.lo86)
 .bss           0x000000000815b1c0        0x0 mc_r2017b_dsx86_32_2.a(mc_81b5717e.lo86)
 .bss           0x000000000815b1c0        0x0 mc_r2017b_dsx86_32_2.a(mc_89d597cf.lo86)
 .bss           0x000000000815b1c0        0x0 mc_r2017b_dsx86_32_2.a(mc_90b6aa0a.lo86)
 .bss           0x000000000815b1c0        0x0 mc_r2017b_dsx86_32_2.a(mc_9ab7d9b0.lo86)
 .bss           0x000000000815b1c0        0x0 mc_r2017b_dsx86_32_2.a(mc_9b6c1529.lo86)
 .bss           0x000000000815b1c0        0x0 mc_r2017b_dsx86_32_2.a(mc_a2647600.lo86)
 .bss           0x000000000815b1c0        0x0 mc_r2017b_dsx86_32_2.a(mc_a26bab1a.lo86)
 .bss           0x000000000815b1c0        0x0 mc_r2017b_dsx86_32_2.a(mc_a3b90582.lo86)
 .bss           0x000000000815b1c0        0x0 mc_r2017b_dsx86_32_2.a(mc_a865d1dd.lo86)
 .bss           0x000000000815b1c0        0x0 mc_r2017b_dsx86_32_2.a(mc_acb3fad7.lo86)
 .bss           0x000000000815b1c0        0x0 mc_r2017b_dsx86_32_2.a(mc_af0cc4c9.lo86)
 .bss           0x000000000815b1c0        0x0 mc_r2017b_dsx86_32_2.a(mc_b0de9cbc.lo86)
 .bss           0x000000000815b1c0        0x0 mc_r2017b_dsx86_32_2.a(mc_b362c5eb.lo86)
 .bss           0x000000000815b1c0        0x0 mc_r2017b_dsx86_32_2.a(mc_b7b03d44.lo86)
 .bss           0x000000000815b1c0        0x0 mc_r2017b_dsx86_32_2.a(mc_b96a0bad.lo86)
 .bss           0x000000000815b1c0        0x0 mc_r2017b_dsx86_32_2.a(mc_bb0520ee.lo86)
 .bss           0x000000000815b1c0        0x0 mc_r2017b_dsx86_32_2.a(mc_bdbb9b78.lo86)
 .bss           0x000000000815b1c0        0x0 mc_r2017b_dsx86_32_2.a(mc_c8d25d23.lo86)
 .bss           0x000000000815b1c0        0x0 mc_r2017b_dsx86_32_2.a(mc_d20085b7.lo86)
 .bss           0x000000000815b1c0        0x0 mc_r2017b_dsx86_32_2.a(mc_d9d38185.lo86)
 .bss           0x000000000815b1c0        0x0 mc_r2017b_dsx86_32_2.a(mc_e7bc2f1a.lo86)
 .bss           0x000000000815b1c0        0x0 mc_r2017b_dsx86_32_2.a(mc_e969ae87.lo86)
 .bss           0x000000000815b1c0        0x0 mc_r2017b_dsx86_32_2.a(mc_edbf543c.lo86)
 .bss           0x000000000815b1c0        0x0 mc_r2017b_dsx86_32_2.a(mc_ee000fbe.lo86)
 .bss           0x000000000815b1c0        0x0 mc_r2017b_dsx86_32_2.a(mc_efdea3a7.lo86)
 .bss           0x000000000815b1c0        0x0 mc_r2017b_dsx86_32_2.a(mc_f3be157c.lo86)
 .bss           0x000000000815b1c0        0x0 mc_r2017b_dsx86_32_2.a(mc_fcb15a9b.lo86)
 .bss           0x000000000815b1c0        0x0 mc_r2017b_dsx86_32_2.a(mc_fd619d14.lo86)
 .bss           0x000000000815b1c0        0x0 mc_r2017b_dsx86_32_2.a(mc_fd6341bb.lo86)
 .bss           0x000000000815b1c0        0x0 mc_r2017b_dsx86_32_2.a(mc_03b98f6f.lo86)
 .bss           0x000000000815b1c0        0x0 mc_r2017b_dsx86_32_2.a(mc_0d6fd085.lo86)
 .bss           0x000000000815b1c0        0x0 mc_r2017b_dsx86_32_2.a(mc_0ed73c49.lo86)
 .bss           0x000000000815b1c0        0x0 mc_r2017b_dsx86_32_2.a(mc_11086079.lo86)
 .bss           0x000000000815b1c0        0x0 mc_r2017b_dsx86_32_2.a(mc_15d12d95.lo86)
 .bss           0x000000000815b1c0        0x0 mc_r2017b_dsx86_32_2.a(mc_2cdc96b4.lo86)
 .bss           0x000000000815b1c0        0x0 mc_r2017b_dsx86_32_2.a(mc_32dc008a.lo86)
 .bss           0x000000000815b1c0        0x0 mc_r2017b_dsx86_32_2.a(mc_3e66abdf.lo86)
 .bss           0x000000000815b1c0        0x0 mc_r2017b_dsx86_32_2.a(mc_51d4094e.lo86)
 .bss           0x000000000815b1c0        0x0 mc_r2017b_dsx86_32_2.a(mc_52688a58.lo86)
 .bss           0x000000000815b1c0        0x0 mc_r2017b_dsx86_32_2.a(mc_5d65cd86.lo86)
 .bss           0x000000000815b1c0        0x0 mc_r2017b_dsx86_32_2.a(mc_67da200d.lo86)
 .bss           0x000000000815b1c0        0x0 mc_r2017b_dsx86_32_2.a(mc_6fb1c336.lo86)
 .bss           0x000000000815b1c0        0x0 mc_r2017b_dsx86_32_2.a(mc_7a613aec.lo86)
 .bss           0x000000000815b1c0        0x0 mc_r2017b_dsx86_32_2.a(mc_7cd58f0b.lo86)
 .bss           0x000000000815b1c0        0x0 mc_r2017b_dsx86_32_2.a(mc_7cdbe436.lo86)
 .bss           0x000000000815b1c0        0x0 mc_r2017b_dsx86_32_2.a(mc_870ec75e.lo86)
 .bss           0x000000000815b1c0        0x0 mc_r2017b_dsx86_32_2.a(mc_9b6376d1.lo86)
 .bss           0x000000000815b1c0        0x0 mc_r2017b_dsx86_32_2.a(mc_dbbb14d2.lo86)
 .bss           0x000000000815b1c0        0x0 mc_r2017b_dsx86_32_2.a(mc_dcdddfae.lo86)
 .bss           0x000000000815b1c0        0x0 mc_r2017b_dsx86_32_2.a(mc_debb448f.lo86)
 .bss           0x000000000815b1c0        0x0 mc_r2017b_dsx86_32_2.a(mc_220ba961.lo86)
 .bss           0x000000000815b1c0        0x0 ex_r2017b_dsx86_32_2.a(ex_04d5441d.lo86)
 .bss           0x000000000815b1c0        0x0 ex_r2017b_dsx86_32_2.a(ex_18b4440a.lo86)
 .bss           0x000000000815b1c0        0x0 ex_r2017b_dsx86_32_2.a(ex_8a6fc761.lo86)
 .bss           0x000000000815b1c0        0x0 pm_r2017b_dsx86_32_2.a(pm_09bc42e2.lo86)
 .bss           0x000000000815b1c0        0x0 pm_r2017b_dsx86_32_2.a(pm_14098e54.lo86)
 .bss           0x000000000815b1c0        0x0 pm_r2017b_dsx86_32_2.a(pm_26dc3230.lo86)
 .bss           0x000000000815b1c0        0x0 pm_r2017b_dsx86_32_2.a(pm_4fd5f5b9.lo86)
 .bss           0x000000000815b1c0        0x0 pm_r2017b_dsx86_32_2.a(pm_fed8c2c9.lo86)
 .bss           0x000000000815b1c0        0x0 C:\Program Files\dSPACE RCPHIL 2018-A\SCALEXIO\Lib\libm_fastpow.a(w_pow.o)
 .bss           0x000000000815b1c0        0x0 C:\Program Files\dSPACE RCPHIL 2018-A\SCALEXIO\Lib\libm_fastpow.a(e_pow.o)
 .bss           0x000000000815b1c0        0x0 c:/programdata/dspace/071346ea-bffa-4465-9551-2e48edf35320/compiler/qnx650_520/host/win32/x86/usr/bin/../lib/gcc/i486-pc-nto-qnx6.5.0/5.2.0/crtend.o
 .bss           0x000000000815b1c0        0x0 C:\ProgramData\dSPACE\071346ea-bffa-4465-9551-2e48edf35320\Compiler\QNX650_520\target\qnx6/x86/lib/crtn.o
 *(COMMON)
                0x000000000815b1c0                . = ALIGN ((. != 0x0)?0x4:0x1)
                0x000000000815b1c0                . = ALIGN (0x4)
                0x000000000815b1c0                . = SEGMENT_START ("ldata-segment", .)
                0x000000000815b1c0                . = ALIGN (0x4)
                0x000000000815b1c0                _end = .
                [!provide]                        PROVIDE (end, .)
                0x000000000815b1c0                . = DATA_SEGMENT_END (.)

.stab
 *(.stab)

.stabstr
 *(.stabstr)

.stab.excl
 *(.stab.excl)

.stab.exclstr
 *(.stab.exclstr)

.stab.index
 *(.stab.index)

.stab.indexstr
 *(.stab.indexstr)

.comment        0x0000000000000000       0x35
 *(.comment)
 .comment       0x0000000000000000       0x11 c:/programdata/dspace/071346ea-bffa-4465-9551-2e48edf35320/compiler/qnx650_520/host/win32/x86/usr/bin/../lib/gcc/i486-pc-nto-qnx6.5.0/5.2.0/crtbegin.o
                                         0x12 (size before relaxing)
 .comment       0x0000000000000011       0x12 mdladapter_mdlfunctions.o86
 .comment       0x0000000000000011       0x12 mdlCode_ap.o86
 .comment       0x0000000000000011       0x12 dssimengine_accesspoint.o86
 .comment       0x0000000000000011       0x12 dssimengine_api.o86
 .comment       0x0000000000000011       0x12 dssimengine_main.o86
 .comment       0x0000000000000011       0x12 rtosal_task.o86
 .comment       0x0000000000000011       0x12 rtosal_taskap.o86
 .comment       0x0000000000000011       0x12 rtosal_simengineap.o86
 .comment       0x0000000000000011       0x12 IOCode_Data.o86
 .comment       0x0000000000000011       0x12 mdlcfg_interapplcom.o86
 .comment       0x0000000000000011       0x12 rtosal_interapplcom.o86
 .comment       0x0000000000000011       0x12 STLA_MECHANICAL.a(STLA_MECHANICAL_dsrtmdlfcn.lo86)
 .comment       0x0000000000000011       0x12 STLA_MECHANICAL.a(STLA_MECHANICAL_dsrttf.lo86)
 .comment       0x0000000000000011       0x12 STLA_MECHANICAL.a(STLA_MECHANICAL.lo86)
 .comment       0x0000000000000011       0x12 STLA_MECHANICAL.a(STLA_MECHANICAL_data.lo86)
 .comment       0x0000000000000011       0x12 STLA_MECHANICAL.a(STLA_MECHANICAL_dsrtvdf.lo86)
 .comment       0x0000000000000011       0x12 Punch_mechanical_B_sample_v3_6_cal_v2_C_rtwlib.lib(Punch_mechanical_B_sample_v3_6_cal_v2_C.lo86)
 .comment       0x0000000000000011       0x12 Punch_mechanical_B_sample_v3_6_cal_v2_C_rtwlib.lib(Punch_mechanical_B_sample_v3_6_cal_v2_C_dsrtvdf.lo86)
 .comment       0x0000000000000011       0x12 Punch_mechanical_B_sample_v3_6_cal_v2_C_rtwlib.lib(Punch_mechanical_B_sample_v3_6_cal_v2_C_9a4b384b_1_gateway.lo86)
 .comment       0x0000000000000011       0x12 Punch_mechanical_B_sample_v3_6_cal_v2_C_rtwlib.lib(Punch_mechanical_B_sample_v3_6_cal_v2_C_9a4b384b_1.lo86)
 .comment       0x0000000000000011       0x12 Punch_mechanical_B_sample_v3_6_cal_v2_C_rtwlib.lib(Punch_mechanical_B_sample_v3_6_cal_v2_C_9a4b384b_1_ds.lo86)
 .comment       0x0000000000000011       0x12 Punch_mechanical_B_sample_v3_6_cal_v2_C_rtwlib.lib(Punch_mechanical_B_sample_v3_6_cal_v2_C_9a4b384b_1_ds_cache_i.lo86)
 .comment       0x0000000000000011       0x12 Punch_mechanical_B_sample_v3_6_cal_v2_C_rtwlib.lib(Punch_mechanical_B_sample_v3_6_cal_v2_C_9a4b384b_1_ds_assert.lo86)
 .comment       0x0000000000000011       0x12 Punch_mechanical_B_sample_v3_6_cal_v2_C_rtwlib.lib(Punch_mechanical_B_sample_v3_6_cal_v2_C_9a4b384b_1_ds_q1.lo86)
 .comment       0x0000000000000011       0x12 Punch_mechanical_B_sample_v3_6_cal_v2_C_rtwlib.lib(Punch_mechanical_B_sample_v3_6_cal_v2_C_9a4b384b_1_ds_dxf_p.lo86)
 .comment       0x0000000000000011       0x12 Punch_mechanical_B_sample_v3_6_cal_v2_C_rtwlib.lib(Punch_mechanical_B_sample_v3_6_cal_v2_C_9a4b384b_1_ds_dxm_p.lo86)
 .comment       0x0000000000000011       0x12 Punch_mechanical_B_sample_v3_6_cal_v2_C_rtwlib.lib(Punch_mechanical_B_sample_v3_6_cal_v2_C_9a4b384b_1_ds_dxdelt_p.lo86)
 .comment       0x0000000000000011       0x12 Punch_mechanical_B_sample_v3_6_cal_v2_C_rtwlib.lib(Punch_mechanical_B_sample_v3_6_cal_v2_C_9a4b384b_1_ds_f.lo86)
 .comment       0x0000000000000011       0x12 Punch_mechanical_B_sample_v3_6_cal_v2_C_rtwlib.lib(Punch_mechanical_B_sample_v3_6_cal_v2_C_9a4b384b_1_ds_update_i.lo86)
 .comment       0x0000000000000011       0x12 Punch_mechanical_B_sample_v3_6_cal_v2_C_rtwlib.lib(Punch_mechanical_B_sample_v3_6_cal_v2_C_9a4b384b_1_ds_qx_p.lo86)
 .comment       0x0000000000000011       0x12 Punch_mechanical_B_sample_v3_6_cal_v2_C_rtwlib.lib(Punch_mechanical_B_sample_v3_6_cal_v2_C_9a4b384b_1_ds_dxf.lo86)
 .comment       0x0000000000000011       0x12 Punch_mechanical_B_sample_v3_6_cal_v2_C_rtwlib.lib(Punch_mechanical_B_sample_v3_6_cal_v2_C_9a4b384b_1_ds_duf.lo86)
 .comment       0x0000000000000011       0x12 Punch_mechanical_B_sample_v3_6_cal_v2_C_rtwlib.lib(Punch_mechanical_B_sample_v3_6_cal_v2_C_9a4b384b_1_ds_obs_act.lo86)
 .comment       0x0000000000000011       0x12 Punch_mechanical_B_sample_v3_6_cal_v2_C_rtwlib.lib(Punch_mechanical_B_sample_v3_6_cal_v2_C_9a4b384b_1_ds_a.lo86)
 .comment       0x0000000000000011       0x12 Punch_mechanical_B_sample_v3_6_cal_v2_C_rtwlib.lib(Punch_mechanical_B_sample_v3_6_cal_v2_C_9a4b384b_1_ds_obs_exp.lo86)
 .comment       0x0000000000000011       0x12 Punch_mechanical_B_sample_v3_6_cal_v2_C_rtwlib.lib(Punch_mechanical_B_sample_v3_6_cal_v2_C_9a4b384b_1_ds_a_p.lo86)
 .comment       0x0000000000000011       0x12 Punch_mechanical_B_sample_v3_6_cal_v2_C_rtwlib.lib(Punch_mechanical_B_sample_v3_6_cal_v2_C_9a4b384b_1_ds_tdxf_p.lo86)
 .comment       0x0000000000000011       0x12 Punch_mechanical_B_sample_v3_6_cal_v2_C_rtwlib.lib(Punch_mechanical_B_sample_v3_6_cal_v2_C_9a4b384b_1_ds_qx.lo86)
 .comment       0x0000000000000011       0x12 Punch_mechanical_B_sample_v3_6_cal_v2_C_rtwlib.lib(Punch_mechanical_B_sample_v3_6_cal_v2_C_9a4b384b_1_ds_vmf.lo86)
 .comment       0x0000000000000011       0x12 Punch_mechanical_B_sample_v3_6_cal_v2_C_rtwlib.lib(Punch_mechanical_B_sample_v3_6_cal_v2_C_9a4b384b_1_ds_slf.lo86)
 .comment       0x0000000000000011       0x12 Punch_mechanical_B_sample_v3_6_cal_v2_C_rtwlib.lib(Punch_mechanical_B_sample_v3_6_cal_v2_C_9a4b384b_1_ds_ic.lo86)
 .comment       0x0000000000000011       0x12 Punch_mechanical_B_sample_v3_6_cal_v2_C_rtwlib.lib(Punch_mechanical_B_sample_v3_6_cal_v2_C_9a4b384b_1_ds_dxicr_p.lo86)
 .comment       0x0000000000000011       0x12 Punch_mechanical_B_sample_v3_6_cal_v2_C_rtwlib.lib(Punch_mechanical_B_sample_v3_6_cal_v2_C_9a4b384b_1_ds_log.lo86)
 .comment       0x0000000000000011       0x12 Punch_mechanical_B_sample_v3_6_cal_v2_C_rtwlib.lib(Punch_mechanical_B_sample_v3_6_cal_v2_C_9a4b384b_1_ds_m.lo86)
 .comment       0x0000000000000011       0x12 Punch_mechanical_B_sample_v3_6_cal_v2_C_rtwlib.lib(Punch_mechanical_B_sample_v3_6_cal_v2_C_9a4b384b_1_ds_m_p.lo86)
 .comment       0x0000000000000011       0x12 Punch_mechanical_B_sample_v3_6_cal_v2_C_rtwlib.lib(Punch_mechanical_B_sample_v3_6_cal_v2_C_9a4b384b_1_ds_vmm.lo86)
 .comment       0x0000000000000011       0x12 Punch_mechanical_B_sample_v3_6_cal_v2_C_rtwlib.lib(Punch_mechanical_B_sample_v3_6_cal_v2_C_9a4b384b_1_ds_mode.lo86)
 .comment       0x0000000000000011       0x12 Punch_mechanical_B_sample_v3_6_cal_v2_C_rtwlib.lib(Punch_mechanical_B_sample_v3_6_cal_v2_C_9a4b384b_1_ds_obs_all.lo86)
 .comment       0x0000000000000011       0x12 Punch_mechanical_B_sample_v3_6_cal_v2_C_rtwlib.lib(Punch_mechanical_B_sample_v3_6_cal_v2_C_9a4b384b_1_ds_q1_p.lo86)
 .comment       0x0000000000000011       0x12 Punch_mechanical_B_sample_v3_6_cal_v2_C_rtwlib.lib(Punch_mechanical_B_sample_v3_6_cal_v2_C_9a4b384b_1_ds_var_tol.lo86)
 .comment       0x0000000000000011       0x12 Punch_mechanical_B_sample_v3_6_cal_v2_C_rtwlib.lib(Punch_mechanical_B_sample_v3_6_cal_v2_C_9a4b384b_1_ds_eq_tol.lo86)
 .comment       0x0000000000000011       0x12 Punch_mechanical_B_sample_v3_6_cal_v2_C_rtwlib.lib(Punch_mechanical_B_sample_v3_6_cal_v2_C_9a4b384b_1_ds_lv.lo86)
 .comment       0x0000000000000011       0x12 Punch_mechanical_B_sample_v3_6_cal_v2_C_rtwlib.lib(Punch_mechanical_B_sample_v3_6_cal_v2_C_9a4b384b_1_ds_slv.lo86)
 .comment       0x0000000000000011       0x12 Punch_mechanical_B_sample_v3_6_cal_v2_C_rtwlib.lib(Punch_mechanical_B_sample_v3_6_cal_v2_C_9a4b384b_1_ds_y.lo86)
 .comment       0x0000000000000011       0x12 Punch_mechanical_B_sample_v3_6_cal_v2_C_rtwlib.lib(Punch_mechanical_B_sample_v3_6_cal_v2_C_9a4b384b_1_ds_dxy.lo86)
 .comment       0x0000000000000011       0x12 Punch_mechanical_B_sample_v3_6_cal_v2_C_rtwlib.lib(Punch_mechanical_B_sample_v3_6_cal_v2_C_9a4b384b_1_ds_dxy_p.lo86)
 .comment       0x0000000000000011       0x12 Punch_mechanical_B_sample_v3_6_cal_v2_C_rtwlib.lib(Punch_mechanical_B_sample_v3_6_cal_v2_C_9a4b384b_1_ds_mdxy_p.lo86)
 .comment       0x0000000000000011       0x12 Punch_mechanical_B_sample_v3_6_cal_v2_C_rtwlib.lib(Punch_mechanical_B_sample_v3_6_cal_v2_C_9a4b384b_1_ds_tdxy_p.lo86)
 .comment       0x0000000000000011       0x12 Punch_mechanical_B_sample_v3_6_cal_v2_C_rtwlib.lib(Punch_mechanical_B_sample_v3_6_cal_v2_C_9a4b384b_1_ds_zc.lo86)
 .comment       0x0000000000000011       0x12 rtwshared.lib(look1_pbinlcapw.lo86)
 .comment       0x0000000000000011       0x12 rtwshared.lib(look2_pbinlcapw.lo86)
 .comment       0x0000000000000011       0x12 rtwshared.lib(rt_backsubrr_dbl.lo86)
 .comment       0x0000000000000011       0x12 rtwshared.lib(rt_forwardsubrr_dbl.lo86)
 .comment       0x0000000000000011       0x12 rtwshared.lib(rt_lu_real.lo86)
 .comment       0x0000000000000011       0x12 rtwshared.lib(rt_nonfinite.lo86)
 .comment       0x0000000000000011       0x12 rtwshared.lib(rtGetInf.lo86)
 .comment       0x0000000000000011       0x12 rtwshared.lib(rtGetNaN.lo86)
 .comment       0x0000000000000011       0x12 ssc_sli_r2017b_dsx86_32_2.a(ssc_sli_0bd269e6.lo86)
 .comment       0x0000000000000011       0x12 ssc_sli_r2017b_dsx86_32_2.a(ssc_sli_5a0cb974.lo86)
 .comment       0x0000000000000011       0x12 ssc_sli_r2017b_dsx86_32_2.a(ssc_sli_c7dda239.lo86)
 .comment       0x0000000000000011       0x12 ssc_sli_r2017b_dsx86_32_2.a(ssc_sli_fbdf29da.lo86)
 .comment       0x0000000000000011       0x12 ssc_sli_r2017b_dsx86_32_2.a(ssc_sli_fa0ce53e.lo86)
 .comment       0x0000000000000011       0x12 ssc_sli_r2017b_dsx86_32_2.a(ssc_sli_550a4805.lo86)
 .comment       0x0000000000000011       0x12 ssc_sli_r2017b_dsx86_32_2.a(ssc_sli_89d0f30a.lo86)
 .comment       0x0000000000000011       0x12 ssc_sli_r2017b_dsx86_32_2.a(ssc_sli_9c030181.lo86)
 .comment       0x0000000000000011       0x12 ssc_sli_r2017b_dsx86_32_2.a(ssc_sli_dcd66f69.lo86)
 .comment       0x0000000000000011       0x12 ssc_sli_r2017b_dsx86_32_2.a(ssc_sli_eb0a5702.lo86)
 .comment       0x0000000000000011       0x12 ssc_sli_r2017b_dsx86_32_2.a(ssc_sli_0763c151.lo86)
 .comment       0x0000000000000011       0x12 ssc_sli_r2017b_dsx86_32_2.a(ssc_sli_360cfd63.lo86)
 .comment       0x0000000000000011       0x12 ssc_sli_r2017b_dsx86_32_2.a(ssc_sli_43618287.lo86)
 .comment       0x0000000000000011       0x12 ssc_sli_r2017b_dsx86_32_2.a(ssc_sli_466b08dd.lo86)
 .comment       0x0000000000000011       0x12 ssc_sli_r2017b_dsx86_32_2.a(ssc_sli_4e028390.lo86)
 .comment       0x0000000000000011       0x12 ssc_sli_r2017b_dsx86_32_2.a(ssc_sli_51dbd3b5.lo86)
 .comment       0x0000000000000011       0x12 ssc_sli_r2017b_dsx86_32_2.a(ssc_sli_62d81790.lo86)
 .comment       0x0000000000000011       0x12 ssc_sli_r2017b_dsx86_32_2.a(ssc_sli_77063d8b.lo86)
 .comment       0x0000000000000011       0x12 ssc_sli_r2017b_dsx86_32_2.a(ssc_sli_7a618260.lo86)
 .comment       0x0000000000000011       0x12 ssc_sli_r2017b_dsx86_32_2.a(ssc_sli_7f630b0f.lo86)
 .comment       0x0000000000000011       0x12 ssc_sli_r2017b_dsx86_32_2.a(ssc_sli_8a64c4e2.lo86)
 .comment       0x0000000000000011       0x12 ssc_core_r2017b_dsx86_32_2.a(ssc_core_05058dd9.lo86)
 .comment       0x0000000000000011       0x12 ssc_core_r2017b_dsx86_32_2.a(ssc_core_1c6b0332.lo86)
 .comment       0x0000000000000011       0x12 ssc_core_r2017b_dsx86_32_2.a(ssc_core_2568b075.lo86)
 .comment       0x0000000000000011       0x12 ssc_core_r2017b_dsx86_32_2.a(ssc_core_360a4baf.lo86)
 .comment       0x0000000000000011       0x12 ssc_core_r2017b_dsx86_32_2.a(ssc_core_4965213d.lo86)
 .comment       0x0000000000000011       0x12 ssc_core_r2017b_dsx86_32_2.a(ssc_core_67d1f118.lo86)
 .comment       0x0000000000000011       0x12 ssc_core_r2017b_dsx86_32_2.a(ssc_core_6b6b89d2.lo86)
 .comment       0x0000000000000011       0x12 ssc_core_r2017b_dsx86_32_2.a(ssc_core_6dd833f3.lo86)
 .comment       0x0000000000000011       0x12 ssc_core_r2017b_dsx86_32_2.a(ssc_core_8569edc5.lo86)
 .comment       0x0000000000000011       0x12 ssc_core_r2017b_dsx86_32_2.a(ssc_core_8a6471dc.lo86)
 .comment       0x0000000000000011       0x12 ssc_core_r2017b_dsx86_32_2.a(ssc_core_97d767fe.lo86)
 .comment       0x0000000000000011       0x12 ssc_core_r2017b_dsx86_32_2.a(ssc_core_a4d4c45e.lo86)
 .comment       0x0000000000000011       0x12 ssc_core_r2017b_dsx86_32_2.a(ssc_core_abd5e7b4.lo86)
 .comment       0x0000000000000011       0x12 ssc_core_r2017b_dsx86_32_2.a(ssc_core_acb64294.lo86)
 .comment       0x0000000000000011       0x12 ssc_core_r2017b_dsx86_32_2.a(ssc_core_acb6462e.lo86)
 .comment       0x0000000000000011       0x12 ssc_core_r2017b_dsx86_32_2.a(ssc_core_b1038cbb.lo86)
 .comment       0x0000000000000011       0x12 ssc_core_r2017b_dsx86_32_2.a(ssc_core_b10e34f4.lo86)
 .comment       0x0000000000000011       0x12 ssc_core_r2017b_dsx86_32_2.a(ssc_core_b2b3b239.lo86)
 .comment       0x0000000000000011       0x12 ssc_core_r2017b_dsx86_32_2.a(ssc_core_b402b40d.lo86)
 .comment       0x0000000000000011       0x12 ssc_core_r2017b_dsx86_32_2.a(ssc_core_bb0b2992.lo86)
 .comment       0x0000000000000011       0x12 ssc_core_r2017b_dsx86_32_2.a(ssc_core_c3003040.lo86)
 .comment       0x0000000000000011       0x12 ssc_core_r2017b_dsx86_32_2.a(ssc_core_c5b63cb2.lo86)
 .comment       0x0000000000000011       0x12 ssc_core_r2017b_dsx86_32_2.a(ssc_core_c607b660.lo86)
 .comment       0x0000000000000011       0x12 ssc_core_r2017b_dsx86_32_2.a(ssc_core_c8d83e88.lo86)
 .comment       0x0000000000000011       0x12 ssc_core_r2017b_dsx86_32_2.a(ssc_core_cab615c8.lo86)
 .comment       0x0000000000000011       0x12 ssc_core_r2017b_dsx86_32_2.a(ssc_core_cabdc251.lo86)
 .comment       0x0000000000000011       0x12 ssc_core_r2017b_dsx86_32_2.a(ssc_core_cc067f58.lo86)
 .comment       0x0000000000000011       0x12 ssc_core_r2017b_dsx86_32_2.a(ssc_core_d06d763c.lo86)
 .comment       0x0000000000000011       0x12 ssc_core_r2017b_dsx86_32_2.a(ssc_core_d3d34d7c.lo86)
 .comment       0x0000000000000011       0x12 ssc_core_r2017b_dsx86_32_2.a(ssc_core_d807fa59.lo86)
 .comment       0x0000000000000011       0x12 ssc_core_r2017b_dsx86_32_2.a(ssc_core_d9d13dac.lo86)
 .comment       0x0000000000000011       0x12 ssc_core_r2017b_dsx86_32_2.a(ssc_core_deb7fd8d.lo86)
 .comment       0x0000000000000011       0x12 ssc_core_r2017b_dsx86_32_2.a(ssc_core_e0d0866d.lo86)
 .comment       0x0000000000000011       0x12 ssc_core_r2017b_dsx86_32_2.a(ssc_core_e2b61d72.lo86)
 .comment       0x0000000000000011       0x12 ssc_core_r2017b_dsx86_32_2.a(ssc_core_e400c1c2.lo86)
 .comment       0x0000000000000011       0x12 ssc_core_r2017b_dsx86_32_2.a(ssc_core_ee000fbe.lo86)
 .comment       0x0000000000000011       0x12 ssc_core_r2017b_dsx86_32_2.a(ssc_core_ee01086d.lo86)
 .comment       0x0000000000000011       0x12 ssc_core_r2017b_dsx86_32_2.a(ssc_core_ee0f0141.lo86)
 .comment       0x0000000000000011       0x12 ssc_core_r2017b_dsx86_32_2.a(ssc_core_f9b6dbed.lo86)
 .comment       0x0000000000000011       0x12 ssc_core_r2017b_dsx86_32_2.a(ssc_core_fa09e9e6.lo86)
 .comment       0x0000000000000011       0x12 ssc_core_r2017b_dsx86_32_2.a(ssc_core_fbd34e62.lo86)
 .comment       0x0000000000000011       0x12 ssc_core_r2017b_dsx86_32_2.a(ssc_core_ff06d9a4.lo86)
 .comment       0x0000000000000011       0x12 ssc_core_r2017b_dsx86_32_2.a(ssc_core_01dcc633.lo86)
 .comment       0x0000000000000011       0x12 ssc_core_r2017b_dsx86_32_2.a(ssc_core_06ba68a6.lo86)
 .comment       0x0000000000000011       0x12 ssc_core_r2017b_dsx86_32_2.a(ssc_core_0f019bd9.lo86)
 .comment       0x0000000000000011       0x12 ssc_core_r2017b_dsx86_32_2.a(ssc_core_0f0420a6.lo86)
 .comment       0x0000000000000011       0x12 ssc_core_r2017b_dsx86_32_2.a(ssc_core_1b0cafd5.lo86)
 .comment       0x0000000000000011       0x12 ssc_core_r2017b_dsx86_32_2.a(ssc_core_3169e4b7.lo86)
 .comment       0x0000000000000011       0x12 ssc_core_r2017b_dsx86_32_2.a(ssc_core_37d4ea84.lo86)
 .comment       0x0000000000000011       0x12 ssc_core_r2017b_dsx86_32_2.a(ssc_core_40dfdbdc.lo86)
 .comment       0x0000000000000011       0x12 ssc_core_r2017b_dsx86_32_2.a(ssc_core_41017299.lo86)
 .comment       0x0000000000000011       0x12 ssc_core_r2017b_dsx86_32_2.a(ssc_core_4666b45b.lo86)
 .comment       0x0000000000000011       0x12 ssc_core_r2017b_dsx86_32_2.a(ssc_core_48b1386a.lo86)
 .comment       0x0000000000000011       0x12 ssc_core_r2017b_dsx86_32_2.a(ssc_core_4ad9135b.lo86)
 .comment       0x0000000000000011       0x12 ssc_core_r2017b_dsx86_32_2.a(ssc_core_4db6bd68.lo86)
 .comment       0x0000000000000011       0x12 ssc_core_r2017b_dsx86_32_2.a(ssc_core_4db86fcc.lo86)
 .comment       0x0000000000000011       0x12 ssc_core_r2017b_dsx86_32_2.a(ssc_core_4e03e39d.lo86)
 .comment       0x0000000000000011       0x12 ssc_core_r2017b_dsx86_32_2.a(ssc_core_54d55ae9.lo86)
 .comment       0x0000000000000011       0x12 ssc_core_r2017b_dsx86_32_2.a(ssc_core_56b1a2bf.lo86)
 .comment       0x0000000000000011       0x12 ssc_core_r2017b_dsx86_32_2.a(ssc_core_59b034b8.lo86)
 .comment       0x0000000000000011       0x12 ssc_core_r2017b_dsx86_32_2.a(ssc_core_5d6ba758.lo86)
 .comment       0x0000000000000011       0x12 ssc_core_r2017b_dsx86_32_2.a(ssc_core_68da074b.lo86)
 .comment       0x0000000000000011       0x12 ssc_core_r2017b_dsx86_32_2.a(ssc_core_73d9c2b7.lo86)
 .comment       0x0000000000000011       0x12 ssc_core_r2017b_dsx86_32_2.a(ssc_core_79dd08ab.lo86)
 .comment       0x0000000000000011       0x12 ssc_core_r2017b_dsx86_32_2.a(ssc_core_7a613edb.lo86)
 .comment       0x0000000000000011       0x12 ssc_core_r2017b_dsx86_32_2.a(ssc_core_83db8762.lo86)
 .comment       0x0000000000000011       0x12 ssc_core_r2017b_dsx86_32_2.a(ssc_core_856738f2.lo86)
 .comment       0x0000000000000011       0x12 ssc_core_r2017b_dsx86_32_2.a(ssc_core_8d0064b8.lo86)
 .comment       0x0000000000000011       0x12 ssc_core_r2017b_dsx86_32_2.a(ssc_core_96061071.lo86)
 .comment       0x0000000000000011       0x12 ssc_core_r2017b_dsx86_32_2.a(ssc_core_9c016445.lo86)
 .comment       0x0000000000000011       0x12 ssc_core_r2017b_dsx86_32_2.a(ssc_core_9dd110ad.lo86)
 .comment       0x0000000000000011       0x12 ssc_core_r2017b_dsx86_32_2.a(ssc_core_9fb0e229.lo86)
 .comment       0x0000000000000011       0x12 ssc_core_r2017b_dsx86_32_2.a(ssc_core_9fb25b4f.lo86)
 .comment       0x0000000000000011       0x12 ssc_core_r2017b_dsx86_32_2.a(ssc_core_a1d393be.lo86)
 .comment       0x0000000000000011       0x12 ssc_core_r2017b_dsx86_32_2.a(ssc_core_a6b78ccc.lo86)
 .comment       0x0000000000000011       0x12 ssc_core_r2017b_dsx86_32_2.a(ssc_core_a867d880.lo86)
 .comment       0x0000000000000011       0x12 ssc_core_r2017b_dsx86_32_2.a(ssc_core_a9bf1ff2.lo86)
 .comment       0x0000000000000011       0x12 ssc_core_r2017b_dsx86_32_2.a(ssc_core_abd05c18.lo86)
 .comment       0x0000000000000011       0x12 ssc_core_r2017b_dsx86_32_2.a(ssc_core_b3671372.lo86)
 .comment       0x0000000000000011       0x12 ssc_core_r2017b_dsx86_32_2.a(ssc_core_b7b88213.lo86)
 .comment       0x0000000000000011       0x12 ssc_core_r2017b_dsx86_32_2.a(ssc_core_b96ebc21.lo86)
 .comment       0x0000000000000011       0x12 ssc_core_r2017b_dsx86_32_2.a(ssc_core_c5b050d7.lo86)
 .comment       0x0000000000000011       0x12 ssc_core_r2017b_dsx86_32_2.a(ssc_core_d70a6a09.lo86)
 .comment       0x0000000000000011       0x12 ssc_core_r2017b_dsx86_32_2.a(ssc_core_dcda6edd.lo86)
 .comment       0x0000000000000011       0x12 ssc_core_r2017b_dsx86_32_2.a(ssc_core_09b5fa6e.lo86)
 .comment       0x0000000000000011       0x12 ssc_core_r2017b_dsx86_32_2.a(ssc_core_0bd666aa.lo86)
 .comment       0x0000000000000011       0x12 ssc_core_r2017b_dsx86_32_2.a(ssc_core_76d825be.lo86)
 .comment       0x0000000000000011       0x12 ssc_core_r2017b_dsx86_32_2.a(ssc_core_a4da1d0a.lo86)
 .comment       0x0000000000000011       0x12 ssc_core_r2017b_dsx86_32_2.a(ssc_core_bc648043.lo86)
 .comment       0x0000000000000011       0x12 ssc_core_r2017b_dsx86_32_2.a(ssc_core_ce6a84bb.lo86)
 .comment       0x0000000000000011       0x12 ne_r2017b_dsx86_32_2.a(ne_59b4e14a.lo86)
 .comment       0x0000000000000011       0x12 mc_r2017b_dsx86_32_2.a(mc_0bd30dee.lo86)
 .comment       0x0000000000000011       0x12 mc_r2017b_dsx86_32_2.a(mc_110e6c6c.lo86)
 .comment       0x0000000000000011       0x12 mc_r2017b_dsx86_32_2.a(mc_15d828ca.lo86)
 .comment       0x0000000000000011       0x12 mc_r2017b_dsx86_32_2.a(mc_2565d6e0.lo86)
 .comment       0x0000000000000011       0x12 mc_r2017b_dsx86_32_2.a(mc_47b8cebe.lo86)
 .comment       0x0000000000000011       0x12 mc_r2017b_dsx86_32_2.a(mc_4b0301c6.lo86)
 .comment       0x0000000000000011       0x12 mc_r2017b_dsx86_32_2.a(mc_52623861.lo86)
 .comment       0x0000000000000011       0x12 mc_r2017b_dsx86_32_2.a(mc_53b1fc84.lo86)
 .comment       0x0000000000000011       0x12 mc_r2017b_dsx86_32_2.a(mc_550847c3.lo86)
 .comment       0x0000000000000011       0x12 mc_r2017b_dsx86_32_2.a(mc_5766048f.lo86)
 .comment       0x0000000000000011       0x12 mc_r2017b_dsx86_32_2.a(mc_59b6e413.lo86)
 .comment       0x0000000000000011       0x12 mc_r2017b_dsx86_32_2.a(mc_630dda0e.lo86)
 .comment       0x0000000000000011       0x12 mc_r2017b_dsx86_32_2.a(mc_67da4f41.lo86)
 .comment       0x0000000000000011       0x12 mc_r2017b_dsx86_32_2.a(mc_6b6d311a.lo86)
 .comment       0x0000000000000011       0x12 mc_r2017b_dsx86_32_2.a(mc_7bbf41f0.lo86)
 .comment       0x0000000000000011       0x12 mc_r2017b_dsx86_32_2.a(mc_7d0547c8.lo86)
 .comment       0x0000000000000011       0x12 mc_r2017b_dsx86_32_2.a(mc_7d099de7.lo86)
 .comment       0x0000000000000011       0x12 mc_r2017b_dsx86_32_2.a(mc_7eb21b39.lo86)
 .comment       0x0000000000000011       0x12 mc_r2017b_dsx86_32_2.a(mc_81b5717e.lo86)
 .comment       0x0000000000000011       0x12 mc_r2017b_dsx86_32_2.a(mc_89d597cf.lo86)
 .comment       0x0000000000000011       0x12 mc_r2017b_dsx86_32_2.a(mc_90b6aa0a.lo86)
 .comment       0x0000000000000011       0x12 mc_r2017b_dsx86_32_2.a(mc_9ab7d9b0.lo86)
 .comment       0x0000000000000011       0x12 mc_r2017b_dsx86_32_2.a(mc_9b6c1529.lo86)
 .comment       0x0000000000000011       0x12 mc_r2017b_dsx86_32_2.a(mc_a2647600.lo86)
 .comment       0x0000000000000011       0x12 mc_r2017b_dsx86_32_2.a(mc_a26bab1a.lo86)
 .comment       0x0000000000000011       0x12 mc_r2017b_dsx86_32_2.a(mc_a3b90582.lo86)
 .comment       0x0000000000000011       0x12 mc_r2017b_dsx86_32_2.a(mc_a865d1dd.lo86)
 .comment       0x0000000000000011       0x12 mc_r2017b_dsx86_32_2.a(mc_acb3fad7.lo86)
 .comment       0x0000000000000011       0x12 mc_r2017b_dsx86_32_2.a(mc_af0cc4c9.lo86)
 .comment       0x0000000000000011       0x12 mc_r2017b_dsx86_32_2.a(mc_b0de9cbc.lo86)
 .comment       0x0000000000000011       0x12 mc_r2017b_dsx86_32_2.a(mc_b362c5eb.lo86)
 .comment       0x0000000000000011       0x12 mc_r2017b_dsx86_32_2.a(mc_b7b03d44.lo86)
 .comment       0x0000000000000011       0x12 mc_r2017b_dsx86_32_2.a(mc_b96a0bad.lo86)
 .comment       0x0000000000000011       0x12 mc_r2017b_dsx86_32_2.a(mc_bb0520ee.lo86)
 .comment       0x0000000000000011       0x12 mc_r2017b_dsx86_32_2.a(mc_bdbb9b78.lo86)
 .comment       0x0000000000000011       0x12 mc_r2017b_dsx86_32_2.a(mc_c8d25d23.lo86)
 .comment       0x0000000000000011       0x12 mc_r2017b_dsx86_32_2.a(mc_d20085b7.lo86)
 .comment       0x0000000000000011       0x12 mc_r2017b_dsx86_32_2.a(mc_d9d38185.lo86)
 .comment       0x0000000000000011       0x12 mc_r2017b_dsx86_32_2.a(mc_e7bc2f1a.lo86)
 .comment       0x0000000000000011       0x12 mc_r2017b_dsx86_32_2.a(mc_e969ae87.lo86)
 .comment       0x0000000000000011       0x12 mc_r2017b_dsx86_32_2.a(mc_edbf543c.lo86)
 .comment       0x0000000000000011       0x12 mc_r2017b_dsx86_32_2.a(mc_ee000fbe.lo86)
 .comment       0x0000000000000011       0x12 mc_r2017b_dsx86_32_2.a(mc_efdea3a7.lo86)
 .comment       0x0000000000000011       0x12 mc_r2017b_dsx86_32_2.a(mc_f3be157c.lo86)
 .comment       0x0000000000000011       0x12 mc_r2017b_dsx86_32_2.a(mc_fcb15a9b.lo86)
 .comment       0x0000000000000011       0x12 mc_r2017b_dsx86_32_2.a(mc_fd619d14.lo86)
 .comment       0x0000000000000011       0x12 mc_r2017b_dsx86_32_2.a(mc_fd6341bb.lo86)
 .comment       0x0000000000000011       0x12 mc_r2017b_dsx86_32_2.a(mc_03b98f6f.lo86)
 .comment       0x0000000000000011       0x12 mc_r2017b_dsx86_32_2.a(mc_0d6fd085.lo86)
 .comment       0x0000000000000011       0x12 mc_r2017b_dsx86_32_2.a(mc_0ed73c49.lo86)
 .comment       0x0000000000000011       0x12 mc_r2017b_dsx86_32_2.a(mc_11086079.lo86)
 .comment       0x0000000000000011       0x12 mc_r2017b_dsx86_32_2.a(mc_15d12d95.lo86)
 .comment       0x0000000000000011       0x12 mc_r2017b_dsx86_32_2.a(mc_2cdc96b4.lo86)
 .comment       0x0000000000000011       0x12 mc_r2017b_dsx86_32_2.a(mc_32dc008a.lo86)
 .comment       0x0000000000000011       0x12 mc_r2017b_dsx86_32_2.a(mc_3e66abdf.lo86)
 .comment       0x0000000000000011       0x12 mc_r2017b_dsx86_32_2.a(mc_51d4094e.lo86)
 .comment       0x0000000000000011       0x12 mc_r2017b_dsx86_32_2.a(mc_52688a58.lo86)
 .comment       0x0000000000000011       0x12 mc_r2017b_dsx86_32_2.a(mc_5d65cd86.lo86)
 .comment       0x0000000000000011       0x12 mc_r2017b_dsx86_32_2.a(mc_67da200d.lo86)
 .comment       0x0000000000000011       0x12 mc_r2017b_dsx86_32_2.a(mc_6fb1c336.lo86)
 .comment       0x0000000000000011       0x12 mc_r2017b_dsx86_32_2.a(mc_7a613aec.lo86)
 .comment       0x0000000000000011       0x12 mc_r2017b_dsx86_32_2.a(mc_7cd58f0b.lo86)
 .comment       0x0000000000000011       0x12 mc_r2017b_dsx86_32_2.a(mc_7cdbe436.lo86)
 .comment       0x0000000000000011       0x12 mc_r2017b_dsx86_32_2.a(mc_870ec75e.lo86)
 .comment       0x0000000000000011       0x12 mc_r2017b_dsx86_32_2.a(mc_9b6376d1.lo86)
 .comment       0x0000000000000011       0x12 mc_r2017b_dsx86_32_2.a(mc_dbbb14d2.lo86)
 .comment       0x0000000000000011       0x12 mc_r2017b_dsx86_32_2.a(mc_dcdddfae.lo86)
 .comment       0x0000000000000011       0x12 mc_r2017b_dsx86_32_2.a(mc_debb448f.lo86)
 .comment       0x0000000000000011       0x12 mc_r2017b_dsx86_32_2.a(mc_220ba961.lo86)
 .comment       0x0000000000000011       0x12 ex_r2017b_dsx86_32_2.a(ex_04d5441d.lo86)
 .comment       0x0000000000000011       0x12 ex_r2017b_dsx86_32_2.a(ex_18b4440a.lo86)
 .comment       0x0000000000000011       0x12 ex_r2017b_dsx86_32_2.a(ex_8a6fc761.lo86)
 .comment       0x0000000000000011       0x12 pm_r2017b_dsx86_32_2.a(pm_09bc42e2.lo86)
 .comment       0x0000000000000011       0x12 pm_r2017b_dsx86_32_2.a(pm_14098e54.lo86)
 .comment       0x0000000000000011       0x12 pm_r2017b_dsx86_32_2.a(pm_26dc3230.lo86)
 .comment       0x0000000000000011       0x12 pm_r2017b_dsx86_32_2.a(pm_4fd5f5b9.lo86)
 .comment       0x0000000000000011       0x12 pm_r2017b_dsx86_32_2.a(pm_fed8c2c9.lo86)
 .comment       0x0000000000000011       0x12 C:\Program Files\dSPACE RCPHIL 2018-A\SCALEXIO\Lib\libm_fastpow.a(w_pow.o)
 .comment       0x0000000000000023       0x12 C:\Program Files\dSPACE RCPHIL 2018-A\SCALEXIO\Lib\libm_fastpow.a(e_pow.o)
 .comment       0x0000000000000035       0x12 c:/programdata/dspace/071346ea-bffa-4465-9551-2e48edf35320/compiler/qnx650_520/host/win32/x86/usr/bin/../lib/gcc/i486-pc-nto-qnx6.5.0/5.2.0/crtend.o

.debug
 *(.debug)

.line
 *(.line)

.debug_srcinfo
 *(.debug_srcinfo)

.debug_sfnames
 *(.debug_sfnames)

.debug_aranges
 *(.debug_aranges)

.debug_pubnames
 *(.debug_pubnames)

.debug_info
 *(.debug_info .gnu.linkonce.wi.*)

.debug_abbrev
 *(.debug_abbrev)

.debug_line
 *(.debug_line .debug_line.* .debug_line_end)

.debug_frame
 *(.debug_frame)

.debug_str
 *(.debug_str)

.debug_loc
 *(.debug_loc)

.debug_macinfo
 *(.debug_macinfo)

.debug_weaknames
 *(.debug_weaknames)

.debug_funcnames
 *(.debug_funcnames)

.debug_typenames
 *(.debug_typenames)

.debug_varnames
 *(.debug_varnames)

.debug_pubtypes
 *(.debug_pubtypes)

.debug_ranges
 *(.debug_ranges)

.debug_macro
 *(.debug_macro)

.gnu.attributes
 *(.gnu.attributes)

/DISCARD/
 *(.note.GNU-stack)
 *(.gnu_debuglink)
 *(.gnu.lto_*)
OUTPUT(STLA_MECHANICAL.x86 elf32-i386)
